   1              		.file	"Calculator.cpp"
   2              		.intel_syntax noprefix
   3              	 # GNU C++14 (MinGW.org GCC-6.3.0-1) version 6.3.0 (mingw32)
   4              	 #	compiled by GNU C version 6.3.0, GMP version 6.1.2, MPFR version 3.1.5, MPC version 1.0.2, isl v
   5              	 # warning: MPC header version 1.0.2 differs from library version 1.0.3.
   6              	 # GGC heuristics: --param ggc-min-expand=100 --param ggc-min-heapsize=131072
   7              	 # options passed:  -iprefix c:\mingw\bin\../lib/gcc/mingw32/6.3.0/
   8              	 # Calculator.cpp -masm=intel -mtune=generic -march=i586 -g -O2
   9              	 # -fverbose-asm
  10              	 # options enabled:  -faggressive-loop-optimizations -falign-labels
  11              	 # -fasynchronous-unwind-tables -fauto-inc-dec -fbranch-count-reg
  12              	 # -fcaller-saves -fchkp-check-incomplete-type -fchkp-check-read
  13              	 # -fchkp-check-write -fchkp-instrument-calls -fchkp-narrow-bounds
  14              	 # -fchkp-optimize -fchkp-store-bounds -fchkp-use-static-bounds
  15              	 # -fchkp-use-static-const-bounds -fchkp-use-wrappers
  16              	 # -fcombine-stack-adjustments -fcommon -fcompare-elim -fcprop-registers
  17              	 # -fcrossjumping -fcse-follow-jumps -fdefer-pop
  18              	 # -fdelete-null-pointer-checks -fdevirtualize -fdevirtualize-speculatively
  19              	 # -fdwarf2-cfi-asm -fearly-inlining -feliminate-unused-debug-types
  20              	 # -fexceptions -fexpensive-optimizations -fforward-propagate
  21              	 # -ffunction-cse -fgcse -fgcse-lm -fgnu-runtime -fgnu-unique
  22              	 # -fguess-branch-probability -fhoist-adjacent-loads -fident
  23              	 # -fif-conversion -fif-conversion2 -findirect-inlining -finline
  24              	 # -finline-atomics -finline-functions-called-once -finline-small-functions
  25              	 # -fipa-cp -fipa-cp-alignment -fipa-icf -fipa-icf-functions
  26              	 # -fipa-icf-variables -fipa-profile -fipa-pure-const -fipa-ra
  27              	 # -fipa-reference -fipa-sra -fira-hoist-pressure -fira-share-save-slots
  28              	 # -fira-share-spill-slots -fisolate-erroneous-paths-dereference -fivopts
  29              	 # -fkeep-inline-dllexport -fkeep-static-consts -fleading-underscore
  30              	 # -flifetime-dse -flra-remat -flto-odr-type-merging -fmath-errno
  31              	 # -fmerge-constants -fmerge-debug-strings -fmove-loop-invariants
  32              	 # -fomit-frame-pointer -foptimize-sibling-calls -foptimize-strlen
  33              	 # -fpartial-inlining -fpeephole -fpeephole2 -fplt -fprefetch-loop-arrays
  34              	 # -free -freg-struct-return -freorder-blocks -freorder-functions
  35              	 # -frerun-cse-after-loop -fsched-critical-path-heuristic
  36              	 # -fsched-dep-count-heuristic -fsched-group-heuristic -fsched-interblock
  37              	 # -fsched-last-insn-heuristic -fsched-rank-heuristic -fsched-spec
  38              	 # -fsched-spec-insn-heuristic -fsched-stalled-insns-dep -fschedule-fusion
  39              	 # -fschedule-insns2 -fsemantic-interposition -fset-stack-executable
  40              	 # -fshow-column -fshrink-wrap -fsigned-zeros -fsplit-ivs-in-unroller
  41              	 # -fsplit-wide-types -fssa-backprop -fssa-phiopt -fstdarg-opt
  42              	 # -fstrict-aliasing -fstrict-overflow -fstrict-volatile-bitfields
  43              	 # -fsync-libcalls -fthread-jumps -ftoplevel-reorder -ftrapping-math
  44              	 # -ftree-bit-ccp -ftree-builtin-call-dce -ftree-ccp -ftree-ch
  45              	 # -ftree-coalesce-vars -ftree-copy-prop -ftree-cselim -ftree-dce
  46              	 # -ftree-dominator-opts -ftree-dse -ftree-forwprop -ftree-fre
  47              	 # -ftree-loop-if-convert -ftree-loop-im -ftree-loop-ivcanon
  48              	 # -ftree-loop-optimize -ftree-parallelize-loops= -ftree-phiprop -ftree-pre
  49              	 # -ftree-pta -ftree-reassoc -ftree-scev-cprop -ftree-sink -ftree-slsr
  50              	 # -ftree-sra -ftree-switch-conversion -ftree-tail-merge -ftree-ter
  51              	 # -ftree-vrp -funit-at-a-time -funwind-tables -fvar-tracking
  52              	 # -fvar-tracking-assignments -fverbose-asm -fzero-initialized-in-bss -m32
  53              	 # -m80387 -m96bit-long-double -maccumulate-outgoing-args -malign-double
  54              	 # -malign-stringops -mavx256-split-unaligned-load
  55              	 # -mavx256-split-unaligned-store -mfancy-math-387 -mfp-ret-in-387
  56              	 # -mieee-fp -mlong-double-80 -mms-bitfields -mno-red-zone -mno-sse4
  57              	 # -mpush-args -msahf -mstack-arg-probe -mstv -mvzeroupper
  58              	
  59              		.text
  60              	Ltext0:
  61              		.p2align 4,,15
  63              	___tcf_0:
  64              	LFB1928:
  65              		.file 1 "c:/mingw/lib/gcc/mingw32/6.3.0/include/c++/iostream"
   1:c:/mingw/lib/gcc/mingw32/6.3.0/include/c++\iostream **** // Standard iostream objects -*- C++ -*-
   2:c:/mingw/lib/gcc/mingw32/6.3.0/include/c++\iostream **** 
   3:c:/mingw/lib/gcc/mingw32/6.3.0/include/c++\iostream **** // Copyright (C) 1997-2016 Free Software Foundation, Inc.
   4:c:/mingw/lib/gcc/mingw32/6.3.0/include/c++\iostream **** //
   5:c:/mingw/lib/gcc/mingw32/6.3.0/include/c++\iostream **** // This file is part of the GNU ISO C++ Library.  This library is free
   6:c:/mingw/lib/gcc/mingw32/6.3.0/include/c++\iostream **** // software; you can redistribute it and/or modify it under the
   7:c:/mingw/lib/gcc/mingw32/6.3.0/include/c++\iostream **** // terms of the GNU General Public License as published by the
   8:c:/mingw/lib/gcc/mingw32/6.3.0/include/c++\iostream **** // Free Software Foundation; either version 3, or (at your option)
   9:c:/mingw/lib/gcc/mingw32/6.3.0/include/c++\iostream **** // any later version.
  10:c:/mingw/lib/gcc/mingw32/6.3.0/include/c++\iostream **** 
  11:c:/mingw/lib/gcc/mingw32/6.3.0/include/c++\iostream **** // This library is distributed in the hope that it will be useful,
  12:c:/mingw/lib/gcc/mingw32/6.3.0/include/c++\iostream **** // but WITHOUT ANY WARRANTY; without even the implied warranty of
  13:c:/mingw/lib/gcc/mingw32/6.3.0/include/c++\iostream **** // MERCHANTABILITY or FITNESS FOR A PARTICULAR PURPOSE.  See the
  14:c:/mingw/lib/gcc/mingw32/6.3.0/include/c++\iostream **** // GNU General Public License for more details.
  15:c:/mingw/lib/gcc/mingw32/6.3.0/include/c++\iostream **** 
  16:c:/mingw/lib/gcc/mingw32/6.3.0/include/c++\iostream **** // Under Section 7 of GPL version 3, you are granted additional
  17:c:/mingw/lib/gcc/mingw32/6.3.0/include/c++\iostream **** // permissions described in the GCC Runtime Library Exception, version
  18:c:/mingw/lib/gcc/mingw32/6.3.0/include/c++\iostream **** // 3.1, as published by the Free Software Foundation.
  19:c:/mingw/lib/gcc/mingw32/6.3.0/include/c++\iostream **** 
  20:c:/mingw/lib/gcc/mingw32/6.3.0/include/c++\iostream **** // You should have received a copy of the GNU General Public License and
  21:c:/mingw/lib/gcc/mingw32/6.3.0/include/c++\iostream **** // a copy of the GCC Runtime Library Exception along with this program;
  22:c:/mingw/lib/gcc/mingw32/6.3.0/include/c++\iostream **** // see the files COPYING3 and COPYING.RUNTIME respectively.  If not, see
  23:c:/mingw/lib/gcc/mingw32/6.3.0/include/c++\iostream **** // <http://www.gnu.org/licenses/>.
  24:c:/mingw/lib/gcc/mingw32/6.3.0/include/c++\iostream **** 
  25:c:/mingw/lib/gcc/mingw32/6.3.0/include/c++\iostream **** /** @file include/iostream
  26:c:/mingw/lib/gcc/mingw32/6.3.0/include/c++\iostream ****  *  This is a Standard C++ Library header.
  27:c:/mingw/lib/gcc/mingw32/6.3.0/include/c++\iostream ****  */
  28:c:/mingw/lib/gcc/mingw32/6.3.0/include/c++\iostream **** 
  29:c:/mingw/lib/gcc/mingw32/6.3.0/include/c++\iostream **** //
  30:c:/mingw/lib/gcc/mingw32/6.3.0/include/c++\iostream **** // ISO C++ 14882: 27.3  Standard iostream objects
  31:c:/mingw/lib/gcc/mingw32/6.3.0/include/c++\iostream **** //
  32:c:/mingw/lib/gcc/mingw32/6.3.0/include/c++\iostream **** 
  33:c:/mingw/lib/gcc/mingw32/6.3.0/include/c++\iostream **** #ifndef _GLIBCXX_IOSTREAM
  34:c:/mingw/lib/gcc/mingw32/6.3.0/include/c++\iostream **** #define _GLIBCXX_IOSTREAM 1
  35:c:/mingw/lib/gcc/mingw32/6.3.0/include/c++\iostream **** 
  36:c:/mingw/lib/gcc/mingw32/6.3.0/include/c++\iostream **** #pragma GCC system_header
  37:c:/mingw/lib/gcc/mingw32/6.3.0/include/c++\iostream **** 
  38:c:/mingw/lib/gcc/mingw32/6.3.0/include/c++\iostream **** #include <bits/c++config.h>
  39:c:/mingw/lib/gcc/mingw32/6.3.0/include/c++\iostream **** #include <ostream>
  40:c:/mingw/lib/gcc/mingw32/6.3.0/include/c++\iostream **** #include <istream>
  41:c:/mingw/lib/gcc/mingw32/6.3.0/include/c++\iostream **** 
  42:c:/mingw/lib/gcc/mingw32/6.3.0/include/c++\iostream **** namespace std _GLIBCXX_VISIBILITY(default)
  43:c:/mingw/lib/gcc/mingw32/6.3.0/include/c++\iostream **** {
  44:c:/mingw/lib/gcc/mingw32/6.3.0/include/c++\iostream **** _GLIBCXX_BEGIN_NAMESPACE_VERSION
  45:c:/mingw/lib/gcc/mingw32/6.3.0/include/c++\iostream **** 
  46:c:/mingw/lib/gcc/mingw32/6.3.0/include/c++\iostream ****   /**
  47:c:/mingw/lib/gcc/mingw32/6.3.0/include/c++\iostream ****    *  @name Standard Stream Objects
  48:c:/mingw/lib/gcc/mingw32/6.3.0/include/c++\iostream ****    *
  49:c:/mingw/lib/gcc/mingw32/6.3.0/include/c++\iostream ****    *  The &lt;iostream&gt; header declares the eight <em>standard stream
  50:c:/mingw/lib/gcc/mingw32/6.3.0/include/c++\iostream ****    *  objects</em>.  For other declarations, see
  51:c:/mingw/lib/gcc/mingw32/6.3.0/include/c++\iostream ****    *  http://gcc.gnu.org/onlinedocs/libstdc++/manual/io.html
  52:c:/mingw/lib/gcc/mingw32/6.3.0/include/c++\iostream ****    *  and the @link iosfwd I/O forward declarations @endlink
  53:c:/mingw/lib/gcc/mingw32/6.3.0/include/c++\iostream ****    *
  54:c:/mingw/lib/gcc/mingw32/6.3.0/include/c++\iostream ****    *  They are required by default to cooperate with the global C
  55:c:/mingw/lib/gcc/mingw32/6.3.0/include/c++\iostream ****    *  library's @c FILE streams, and to be available during program
  56:c:/mingw/lib/gcc/mingw32/6.3.0/include/c++\iostream ****    *  startup and termination. For more information, see the section of the
  57:c:/mingw/lib/gcc/mingw32/6.3.0/include/c++\iostream ****    *  manual linked to above.
  58:c:/mingw/lib/gcc/mingw32/6.3.0/include/c++\iostream ****   */
  59:c:/mingw/lib/gcc/mingw32/6.3.0/include/c++\iostream ****   //@{
  60:c:/mingw/lib/gcc/mingw32/6.3.0/include/c++\iostream ****   extern istream cin;		/// Linked to standard input
  61:c:/mingw/lib/gcc/mingw32/6.3.0/include/c++\iostream ****   extern ostream cout;		/// Linked to standard output
  62:c:/mingw/lib/gcc/mingw32/6.3.0/include/c++\iostream ****   extern ostream cerr;		/// Linked to standard error (unbuffered)
  63:c:/mingw/lib/gcc/mingw32/6.3.0/include/c++\iostream ****   extern ostream clog;		/// Linked to standard error (buffered)
  64:c:/mingw/lib/gcc/mingw32/6.3.0/include/c++\iostream **** 
  65:c:/mingw/lib/gcc/mingw32/6.3.0/include/c++\iostream **** #ifdef _GLIBCXX_USE_WCHAR_T
  66:c:/mingw/lib/gcc/mingw32/6.3.0/include/c++\iostream ****   extern wistream wcin;		/// Linked to standard input
  67:c:/mingw/lib/gcc/mingw32/6.3.0/include/c++\iostream ****   extern wostream wcout;	/// Linked to standard output
  68:c:/mingw/lib/gcc/mingw32/6.3.0/include/c++\iostream ****   extern wostream wcerr;	/// Linked to standard error (unbuffered)
  69:c:/mingw/lib/gcc/mingw32/6.3.0/include/c++\iostream ****   extern wostream wclog;	/// Linked to standard error (buffered)
  70:c:/mingw/lib/gcc/mingw32/6.3.0/include/c++\iostream **** #endif
  71:c:/mingw/lib/gcc/mingw32/6.3.0/include/c++\iostream ****   //@}
  72:c:/mingw/lib/gcc/mingw32/6.3.0/include/c++\iostream **** 
  73:c:/mingw/lib/gcc/mingw32/6.3.0/include/c++\iostream ****   // For construction of filebuffers for cout, cin, cerr, clog et. al.
  74:c:/mingw/lib/gcc/mingw32/6.3.0/include/c++\iostream ****   static ios_base::Init __ioinit;
  66              		.loc 1 74 0
  67              		.cfi_startproc
  68              		.loc 1 74 0
  69 0000 B9000000 		mov	ecx, OFFSET FLAT:__ZStL8__ioinit	 #,
  69      00
  70 0005 E9000000 		jmp	__ZNSt8ios_base4InitD1Ev	 #
  70      00
  71              	LVL0:
  72              		.cfi_endproc
  73              	LFE1928:
  74 000a 8DB60000 		.p2align 4,,15
  74      0000
  75              		.globl	__Z5topladd
  77              	__Z5topladd:
  78              	LFB1489:
  79              		.file 2 "Calculator.cpp"
   1:Calculator.cpp **** 
   2:Calculator.cpp **** #include <iostream>
   3:Calculator.cpp **** #include <conio.h>
   4:Calculator.cpp **** using namespace std;
   5:Calculator.cpp **** double topla(double a, double b) {
  80              		.loc 2 5 0
  81              		.cfi_startproc
  82              	LVL1:
   6:Calculator.cpp ****  return a + b;
  83              		.loc 2 6 0
  84 0010 DD44240C 		fld	QWORD PTR [esp+12]	 # b
  85 0014 DC442404 		fadd	QWORD PTR [esp+4]	 # a
   7:Calculator.cpp **** }
  86              		.loc 2 7 0
  87 0018 C3       		ret
  88              		.cfi_endproc
  89              	LFE1489:
  90 0019 8DB42600 		.p2align 4,,15
  90      000000
  91              		.globl	__Z4carpdd
  93              	__Z4carpdd:
  94              	LFB1490:
   8:Calculator.cpp **** double carp(double a, double b) {
  95              		.loc 2 8 0
  96              		.cfi_startproc
  97              	LVL2:
   9:Calculator.cpp ****  return a*b;
  98              		.loc 2 9 0
  99 0020 DD44240C 		fld	QWORD PTR [esp+12]	 # b
 100 0024 DC4C2404 		fmul	QWORD PTR [esp+4]	 # a
  10:Calculator.cpp **** }
 101              		.loc 2 10 0
 102 0028 C3       		ret
 103              		.cfi_endproc
 104              	LFE1490:
 105 0029 8DB42600 		.p2align 4,,15
 105      000000
 106              		.globl	__Z3boldd
 108              	__Z3boldd:
 109              	LFB1491:
  11:Calculator.cpp **** double bol(double a, double b) {
 110              		.loc 2 11 0
 111              		.cfi_startproc
 112              	LVL3:
  12:Calculator.cpp ****  return a / b;
 113              		.loc 2 12 0
 114 0030 DD44240C 		fld	QWORD PTR [esp+12]	 # b
 115 0034 DC7C2404 		fdivr	QWORD PTR [esp+4]	 # a
  13:Calculator.cpp **** }
 116              		.loc 2 13 0
 117 0038 C3       		ret
 118              		.cfi_endproc
 119              	LFE1491:
 120 0039 8DB42600 		.p2align 4,,15
 120      000000
 121              		.globl	__Z5cikardd
 123              	__Z5cikardd:
 124              	LFB1492:
  14:Calculator.cpp **** double cikar(double a, double b) {
 125              		.loc 2 14 0
 126              		.cfi_startproc
 127              	LVL4:
  15:Calculator.cpp ****  return a - b;
 128              		.loc 2 15 0
 129 0040 DD44240C 		fld	QWORD PTR [esp+12]	 # b
 130 0044 DC6C2404 		fsubr	QWORD PTR [esp+4]	 # a
  16:Calculator.cpp **** }
 131              		.loc 2 16 0
 132 0048 C3       		ret
 133              		.cfi_endproc
 134              	LFE1492:
 136              		.section .rdata,"dr"
 137              	LC1:
 138 0000 312E5361 		.ascii "1.Sayi Giriniz a= \0"
 138      79692047 
 138      6972696E 
 138      697A2061 
 138      3D2000
 139              	LC2:
 140 0013 322E5361 		.ascii "2.Sayi Giriniz b= \0"
 140      79692047 
 140      6972696E 
 140      697A2062 
 140      3D2000
 141 0026 0000     		.align 4
 142              	LC3:
 143 0028 4D617465 		.ascii "Matematiksel Operatoru Giriniz +,*,/,- = \0"
 143      6D617469 
 143      6B73656C 
 143      204F7065 
 143      7261746F 
 144              	LC4:
 145 0052 61202B20 		.ascii "a + b = \0"
 145      62203D20 
 145      00
 146              	LC5:
 147 005b 61202A20 		.ascii "a * b = \0"
 147      62203D20 
 147      00
 148              	LC6:
 149 0064 61202F20 		.ascii "a / b = \0"
 149      62203D20 
 149      00
 150              	LC7:
 151 006d 61202D20 		.ascii "a - b = \0"
 151      62203D20 
 151      00
 152              	LC8:
 153 0076 09204861 		.ascii "\11 Hatal\304\261 se\303\247im yapt\304\261n\304\261z!\0"
 153      74616CC4 
 153      B1207365 
 153      C3A7696D 
 153      20796170 
 154 0093 00       		.section	.text.startup,"x"
 155              		.p2align 4,,15
 156              		.globl	_main
 158              	_main:
 159              	LFB1493:
  17:Calculator.cpp **** int main() {
 160              		.loc 2 17 0
 161              		.cfi_startproc
 162 0000 8D4C2404 		lea	ecx, [esp+4]	 #,
 163              		.cfi_def_cfa 1, 0
 164 0004 83E4F0   		and	esp, -16	 #,
 165 0007 FF71FC   		push	DWORD PTR [ecx-4]	 #
 166 000a 55       		push	ebp	 #
 167              		.cfi_escape 0x10,0x5,0x2,0x75,0
 168 000b 89E5     		mov	ebp, esp	 #,
 169 000d 51       		push	ecx	 #
 170              		.cfi_escape 0xf,0x3,0x75,0x7c,0x6
 171 000e 83EC44   		sub	esp, 68	 #,
 172              		.loc 2 17 0
 173 0011 E8000000 		call	___main	 #
 173      00
 174              	LVL5:
  18:Calculator.cpp ****  double a, b;
  19:Calculator.cpp ****  char op = '*';
  20:Calculator.cpp ****  cout << "1.Sayi Giriniz a= ";
 175              		.loc 2 20 0
 176 0016 C7442404 		mov	DWORD PTR [esp+4], OFFSET FLAT:LC1	 #,
 176      00000000 
 177 001e C7042400 		mov	DWORD PTR [esp], OFFSET FLAT:__ZSt4cout	 #,
 177      000000
  19:Calculator.cpp ****  cout << "1.Sayi Giriniz a= ";
 178              		.loc 2 19 0
 179 0025 C645E72A 		mov	BYTE PTR [ebp-25], 42	 # op,
 180              		.loc 2 20 0
 181 0029 E8000000 		call	__ZStlsISt11char_traitsIcEERSt13basic_ostreamIcT_ES5_PKc	 #
 181      00
 182              	LVL6:
 183              	LBB72:
 184              	LBB73:
 185              		.file 3 "c:/mingw/lib/gcc/mingw32/6.3.0/include/c++/istream"
   1:c:/mingw/lib/gcc/mingw32/6.3.0/include/c++\istream **** // Input streams -*- C++ -*-
   2:c:/mingw/lib/gcc/mingw32/6.3.0/include/c++\istream **** 
   3:c:/mingw/lib/gcc/mingw32/6.3.0/include/c++\istream **** // Copyright (C) 1997-2016 Free Software Foundation, Inc.
   4:c:/mingw/lib/gcc/mingw32/6.3.0/include/c++\istream **** //
   5:c:/mingw/lib/gcc/mingw32/6.3.0/include/c++\istream **** // This file is part of the GNU ISO C++ Library.  This library is free
   6:c:/mingw/lib/gcc/mingw32/6.3.0/include/c++\istream **** // software; you can redistribute it and/or modify it under the
   7:c:/mingw/lib/gcc/mingw32/6.3.0/include/c++\istream **** // terms of the GNU General Public License as published by the
   8:c:/mingw/lib/gcc/mingw32/6.3.0/include/c++\istream **** // Free Software Foundation; either version 3, or (at your option)
   9:c:/mingw/lib/gcc/mingw32/6.3.0/include/c++\istream **** // any later version.
  10:c:/mingw/lib/gcc/mingw32/6.3.0/include/c++\istream **** 
  11:c:/mingw/lib/gcc/mingw32/6.3.0/include/c++\istream **** // This library is distributed in the hope that it will be useful,
  12:c:/mingw/lib/gcc/mingw32/6.3.0/include/c++\istream **** // but WITHOUT ANY WARRANTY; without even the implied warranty of
  13:c:/mingw/lib/gcc/mingw32/6.3.0/include/c++\istream **** // MERCHANTABILITY or FITNESS FOR A PARTICULAR PURPOSE.  See the
  14:c:/mingw/lib/gcc/mingw32/6.3.0/include/c++\istream **** // GNU General Public License for more details.
  15:c:/mingw/lib/gcc/mingw32/6.3.0/include/c++\istream **** 
  16:c:/mingw/lib/gcc/mingw32/6.3.0/include/c++\istream **** // Under Section 7 of GPL version 3, you are granted additional
  17:c:/mingw/lib/gcc/mingw32/6.3.0/include/c++\istream **** // permissions described in the GCC Runtime Library Exception, version
  18:c:/mingw/lib/gcc/mingw32/6.3.0/include/c++\istream **** // 3.1, as published by the Free Software Foundation.
  19:c:/mingw/lib/gcc/mingw32/6.3.0/include/c++\istream **** 
  20:c:/mingw/lib/gcc/mingw32/6.3.0/include/c++\istream **** // You should have received a copy of the GNU General Public License and
  21:c:/mingw/lib/gcc/mingw32/6.3.0/include/c++\istream **** // a copy of the GCC Runtime Library Exception along with this program;
  22:c:/mingw/lib/gcc/mingw32/6.3.0/include/c++\istream **** // see the files COPYING3 and COPYING.RUNTIME respectively.  If not, see
  23:c:/mingw/lib/gcc/mingw32/6.3.0/include/c++\istream **** // <http://www.gnu.org/licenses/>.
  24:c:/mingw/lib/gcc/mingw32/6.3.0/include/c++\istream **** 
  25:c:/mingw/lib/gcc/mingw32/6.3.0/include/c++\istream **** //
  26:c:/mingw/lib/gcc/mingw32/6.3.0/include/c++\istream **** // ISO C++ 14882: 27.6.1  Input streams
  27:c:/mingw/lib/gcc/mingw32/6.3.0/include/c++\istream **** //
  28:c:/mingw/lib/gcc/mingw32/6.3.0/include/c++\istream **** 
  29:c:/mingw/lib/gcc/mingw32/6.3.0/include/c++\istream **** /** @file include/istream
  30:c:/mingw/lib/gcc/mingw32/6.3.0/include/c++\istream ****  *  This is a Standard C++ Library header.
  31:c:/mingw/lib/gcc/mingw32/6.3.0/include/c++\istream ****  */
  32:c:/mingw/lib/gcc/mingw32/6.3.0/include/c++\istream **** 
  33:c:/mingw/lib/gcc/mingw32/6.3.0/include/c++\istream **** #ifndef _GLIBCXX_ISTREAM
  34:c:/mingw/lib/gcc/mingw32/6.3.0/include/c++\istream **** #define _GLIBCXX_ISTREAM 1
  35:c:/mingw/lib/gcc/mingw32/6.3.0/include/c++\istream **** 
  36:c:/mingw/lib/gcc/mingw32/6.3.0/include/c++\istream **** #pragma GCC system_header
  37:c:/mingw/lib/gcc/mingw32/6.3.0/include/c++\istream **** 
  38:c:/mingw/lib/gcc/mingw32/6.3.0/include/c++\istream **** #include <ios>
  39:c:/mingw/lib/gcc/mingw32/6.3.0/include/c++\istream **** #include <ostream>
  40:c:/mingw/lib/gcc/mingw32/6.3.0/include/c++\istream **** 
  41:c:/mingw/lib/gcc/mingw32/6.3.0/include/c++\istream **** namespace std _GLIBCXX_VISIBILITY(default)
  42:c:/mingw/lib/gcc/mingw32/6.3.0/include/c++\istream **** {
  43:c:/mingw/lib/gcc/mingw32/6.3.0/include/c++\istream **** _GLIBCXX_BEGIN_NAMESPACE_VERSION
  44:c:/mingw/lib/gcc/mingw32/6.3.0/include/c++\istream **** 
  45:c:/mingw/lib/gcc/mingw32/6.3.0/include/c++\istream ****   /**
  46:c:/mingw/lib/gcc/mingw32/6.3.0/include/c++\istream ****    *  @brief  Template class basic_istream.
  47:c:/mingw/lib/gcc/mingw32/6.3.0/include/c++\istream ****    *  @ingroup io
  48:c:/mingw/lib/gcc/mingw32/6.3.0/include/c++\istream ****    *
  49:c:/mingw/lib/gcc/mingw32/6.3.0/include/c++\istream ****    *  @tparam _CharT  Type of character stream.
  50:c:/mingw/lib/gcc/mingw32/6.3.0/include/c++\istream ****    *  @tparam _Traits  Traits for character type, defaults to
  51:c:/mingw/lib/gcc/mingw32/6.3.0/include/c++\istream ****    *                   char_traits<_CharT>.
  52:c:/mingw/lib/gcc/mingw32/6.3.0/include/c++\istream ****    *
  53:c:/mingw/lib/gcc/mingw32/6.3.0/include/c++\istream ****    *  This is the base class for all input streams.  It provides text
  54:c:/mingw/lib/gcc/mingw32/6.3.0/include/c++\istream ****    *  formatting of all builtin types, and communicates with any class
  55:c:/mingw/lib/gcc/mingw32/6.3.0/include/c++\istream ****    *  derived from basic_streambuf to do the actual input.
  56:c:/mingw/lib/gcc/mingw32/6.3.0/include/c++\istream ****   */
  57:c:/mingw/lib/gcc/mingw32/6.3.0/include/c++\istream ****   template<typename _CharT, typename _Traits>
  58:c:/mingw/lib/gcc/mingw32/6.3.0/include/c++\istream ****     class basic_istream : virtual public basic_ios<_CharT, _Traits>
  59:c:/mingw/lib/gcc/mingw32/6.3.0/include/c++\istream ****     {
  60:c:/mingw/lib/gcc/mingw32/6.3.0/include/c++\istream ****     public:
  61:c:/mingw/lib/gcc/mingw32/6.3.0/include/c++\istream ****       // Types (inherited from basic_ios (27.4.4)):
  62:c:/mingw/lib/gcc/mingw32/6.3.0/include/c++\istream ****       typedef _CharT			 		char_type;
  63:c:/mingw/lib/gcc/mingw32/6.3.0/include/c++\istream ****       typedef typename _Traits::int_type 		int_type;
  64:c:/mingw/lib/gcc/mingw32/6.3.0/include/c++\istream ****       typedef typename _Traits::pos_type 		pos_type;
  65:c:/mingw/lib/gcc/mingw32/6.3.0/include/c++\istream ****       typedef typename _Traits::off_type 		off_type;
  66:c:/mingw/lib/gcc/mingw32/6.3.0/include/c++\istream ****       typedef _Traits			 		traits_type;
  67:c:/mingw/lib/gcc/mingw32/6.3.0/include/c++\istream **** 
  68:c:/mingw/lib/gcc/mingw32/6.3.0/include/c++\istream ****       // Non-standard Types:
  69:c:/mingw/lib/gcc/mingw32/6.3.0/include/c++\istream ****       typedef basic_streambuf<_CharT, _Traits> 		__streambuf_type;
  70:c:/mingw/lib/gcc/mingw32/6.3.0/include/c++\istream ****       typedef basic_ios<_CharT, _Traits>		__ios_type;
  71:c:/mingw/lib/gcc/mingw32/6.3.0/include/c++\istream ****       typedef basic_istream<_CharT, _Traits>		__istream_type;
  72:c:/mingw/lib/gcc/mingw32/6.3.0/include/c++\istream ****       typedef num_get<_CharT, istreambuf_iterator<_CharT, _Traits> >
  73:c:/mingw/lib/gcc/mingw32/6.3.0/include/c++\istream ****  							__num_get_type;
  74:c:/mingw/lib/gcc/mingw32/6.3.0/include/c++\istream ****       typedef ctype<_CharT>	      			__ctype_type;
  75:c:/mingw/lib/gcc/mingw32/6.3.0/include/c++\istream **** 
  76:c:/mingw/lib/gcc/mingw32/6.3.0/include/c++\istream ****     protected:
  77:c:/mingw/lib/gcc/mingw32/6.3.0/include/c++\istream ****       // Data Members:
  78:c:/mingw/lib/gcc/mingw32/6.3.0/include/c++\istream ****       /**
  79:c:/mingw/lib/gcc/mingw32/6.3.0/include/c++\istream ****        *  The number of characters extracted in the previous unformatted
  80:c:/mingw/lib/gcc/mingw32/6.3.0/include/c++\istream ****        *  function; see gcount().
  81:c:/mingw/lib/gcc/mingw32/6.3.0/include/c++\istream ****       */
  82:c:/mingw/lib/gcc/mingw32/6.3.0/include/c++\istream ****       streamsize 		_M_gcount;
  83:c:/mingw/lib/gcc/mingw32/6.3.0/include/c++\istream **** 
  84:c:/mingw/lib/gcc/mingw32/6.3.0/include/c++\istream ****     public:
  85:c:/mingw/lib/gcc/mingw32/6.3.0/include/c++\istream ****       /**
  86:c:/mingw/lib/gcc/mingw32/6.3.0/include/c++\istream ****        *  @brief  Base constructor.
  87:c:/mingw/lib/gcc/mingw32/6.3.0/include/c++\istream ****        *
  88:c:/mingw/lib/gcc/mingw32/6.3.0/include/c++\istream ****        *  This ctor is almost never called by the user directly, rather from
  89:c:/mingw/lib/gcc/mingw32/6.3.0/include/c++\istream ****        *  derived classes' initialization lists, which pass a pointer to
  90:c:/mingw/lib/gcc/mingw32/6.3.0/include/c++\istream ****        *  their own stream buffer.
  91:c:/mingw/lib/gcc/mingw32/6.3.0/include/c++\istream ****       */
  92:c:/mingw/lib/gcc/mingw32/6.3.0/include/c++\istream ****       explicit
  93:c:/mingw/lib/gcc/mingw32/6.3.0/include/c++\istream ****       basic_istream(__streambuf_type* __sb)
  94:c:/mingw/lib/gcc/mingw32/6.3.0/include/c++\istream ****       : _M_gcount(streamsize(0))
  95:c:/mingw/lib/gcc/mingw32/6.3.0/include/c++\istream ****       { this->init(__sb); }
  96:c:/mingw/lib/gcc/mingw32/6.3.0/include/c++\istream **** 
  97:c:/mingw/lib/gcc/mingw32/6.3.0/include/c++\istream ****       /**
  98:c:/mingw/lib/gcc/mingw32/6.3.0/include/c++\istream ****        *  @brief  Base destructor.
  99:c:/mingw/lib/gcc/mingw32/6.3.0/include/c++\istream ****        *
 100:c:/mingw/lib/gcc/mingw32/6.3.0/include/c++\istream ****        *  This does very little apart from providing a virtual base dtor.
 101:c:/mingw/lib/gcc/mingw32/6.3.0/include/c++\istream ****       */
 102:c:/mingw/lib/gcc/mingw32/6.3.0/include/c++\istream ****       virtual
 103:c:/mingw/lib/gcc/mingw32/6.3.0/include/c++\istream ****       ~basic_istream()
 104:c:/mingw/lib/gcc/mingw32/6.3.0/include/c++\istream ****       { _M_gcount = streamsize(0); }
 105:c:/mingw/lib/gcc/mingw32/6.3.0/include/c++\istream **** 
 106:c:/mingw/lib/gcc/mingw32/6.3.0/include/c++\istream ****       /// Safe prefix/suffix operations.
 107:c:/mingw/lib/gcc/mingw32/6.3.0/include/c++\istream ****       class sentry;
 108:c:/mingw/lib/gcc/mingw32/6.3.0/include/c++\istream ****       friend class sentry;
 109:c:/mingw/lib/gcc/mingw32/6.3.0/include/c++\istream **** 
 110:c:/mingw/lib/gcc/mingw32/6.3.0/include/c++\istream ****       //@{
 111:c:/mingw/lib/gcc/mingw32/6.3.0/include/c++\istream ****       /**
 112:c:/mingw/lib/gcc/mingw32/6.3.0/include/c++\istream ****        *  @brief  Interface for manipulators.
 113:c:/mingw/lib/gcc/mingw32/6.3.0/include/c++\istream ****        *
 114:c:/mingw/lib/gcc/mingw32/6.3.0/include/c++\istream ****        *  Manipulators such as @c std::ws and @c std::dec use these
 115:c:/mingw/lib/gcc/mingw32/6.3.0/include/c++\istream ****        *  functions in constructs like
 116:c:/mingw/lib/gcc/mingw32/6.3.0/include/c++\istream ****        *  <code>std::cin >> std::ws</code>.
 117:c:/mingw/lib/gcc/mingw32/6.3.0/include/c++\istream ****        *  For more information, see the iomanip header.
 118:c:/mingw/lib/gcc/mingw32/6.3.0/include/c++\istream ****       */
 119:c:/mingw/lib/gcc/mingw32/6.3.0/include/c++\istream ****       __istream_type&
 120:c:/mingw/lib/gcc/mingw32/6.3.0/include/c++\istream ****       operator>>(__istream_type& (*__pf)(__istream_type&))
 121:c:/mingw/lib/gcc/mingw32/6.3.0/include/c++\istream ****       { return __pf(*this); }
 122:c:/mingw/lib/gcc/mingw32/6.3.0/include/c++\istream **** 
 123:c:/mingw/lib/gcc/mingw32/6.3.0/include/c++\istream ****       __istream_type&
 124:c:/mingw/lib/gcc/mingw32/6.3.0/include/c++\istream ****       operator>>(__ios_type& (*__pf)(__ios_type&))
 125:c:/mingw/lib/gcc/mingw32/6.3.0/include/c++\istream ****       {
 126:c:/mingw/lib/gcc/mingw32/6.3.0/include/c++\istream **** 	__pf(*this);
 127:c:/mingw/lib/gcc/mingw32/6.3.0/include/c++\istream **** 	return *this;
 128:c:/mingw/lib/gcc/mingw32/6.3.0/include/c++\istream ****       }
 129:c:/mingw/lib/gcc/mingw32/6.3.0/include/c++\istream **** 
 130:c:/mingw/lib/gcc/mingw32/6.3.0/include/c++\istream ****       __istream_type&
 131:c:/mingw/lib/gcc/mingw32/6.3.0/include/c++\istream ****       operator>>(ios_base& (*__pf)(ios_base&))
 132:c:/mingw/lib/gcc/mingw32/6.3.0/include/c++\istream ****       {
 133:c:/mingw/lib/gcc/mingw32/6.3.0/include/c++\istream **** 	__pf(*this);
 134:c:/mingw/lib/gcc/mingw32/6.3.0/include/c++\istream **** 	return *this;
 135:c:/mingw/lib/gcc/mingw32/6.3.0/include/c++\istream ****       }
 136:c:/mingw/lib/gcc/mingw32/6.3.0/include/c++\istream ****       //@}
 137:c:/mingw/lib/gcc/mingw32/6.3.0/include/c++\istream **** 
 138:c:/mingw/lib/gcc/mingw32/6.3.0/include/c++\istream ****       //@{
 139:c:/mingw/lib/gcc/mingw32/6.3.0/include/c++\istream ****       /**
 140:c:/mingw/lib/gcc/mingw32/6.3.0/include/c++\istream ****        *  @name Extractors
 141:c:/mingw/lib/gcc/mingw32/6.3.0/include/c++\istream ****        *
 142:c:/mingw/lib/gcc/mingw32/6.3.0/include/c++\istream ****        *  All the @c operator>> functions (aka <em>formatted input
 143:c:/mingw/lib/gcc/mingw32/6.3.0/include/c++\istream ****        *  functions</em>) have some common behavior.  Each starts by
 144:c:/mingw/lib/gcc/mingw32/6.3.0/include/c++\istream ****        *  constructing a temporary object of type std::basic_istream::sentry
 145:c:/mingw/lib/gcc/mingw32/6.3.0/include/c++\istream ****        *  with the second argument (noskipws) set to false.  This has several
 146:c:/mingw/lib/gcc/mingw32/6.3.0/include/c++\istream ****        *  effects, concluding with the setting of a status flag; see the
 147:c:/mingw/lib/gcc/mingw32/6.3.0/include/c++\istream ****        *  sentry documentation for more.
 148:c:/mingw/lib/gcc/mingw32/6.3.0/include/c++\istream ****        *
 149:c:/mingw/lib/gcc/mingw32/6.3.0/include/c++\istream ****        *  If the sentry status is good, the function tries to extract
 150:c:/mingw/lib/gcc/mingw32/6.3.0/include/c++\istream ****        *  whatever data is appropriate for the type of the argument.
 151:c:/mingw/lib/gcc/mingw32/6.3.0/include/c++\istream ****        *
 152:c:/mingw/lib/gcc/mingw32/6.3.0/include/c++\istream ****        *  If an exception is thrown during extraction, ios_base::badbit
 153:c:/mingw/lib/gcc/mingw32/6.3.0/include/c++\istream ****        *  will be turned on in the stream's error state without causing an
 154:c:/mingw/lib/gcc/mingw32/6.3.0/include/c++\istream ****        *  ios_base::failure to be thrown.  The original exception will then
 155:c:/mingw/lib/gcc/mingw32/6.3.0/include/c++\istream ****        *  be rethrown.
 156:c:/mingw/lib/gcc/mingw32/6.3.0/include/c++\istream ****       */
 157:c:/mingw/lib/gcc/mingw32/6.3.0/include/c++\istream **** 
 158:c:/mingw/lib/gcc/mingw32/6.3.0/include/c++\istream ****       //@{
 159:c:/mingw/lib/gcc/mingw32/6.3.0/include/c++\istream ****       /**
 160:c:/mingw/lib/gcc/mingw32/6.3.0/include/c++\istream ****        *  @brief  Integer arithmetic extractors
 161:c:/mingw/lib/gcc/mingw32/6.3.0/include/c++\istream ****        *  @param  __n A variable of builtin integral type.
 162:c:/mingw/lib/gcc/mingw32/6.3.0/include/c++\istream ****        *  @return  @c *this if successful
 163:c:/mingw/lib/gcc/mingw32/6.3.0/include/c++\istream ****        *
 164:c:/mingw/lib/gcc/mingw32/6.3.0/include/c++\istream ****        *  These functions use the stream's current locale (specifically, the
 165:c:/mingw/lib/gcc/mingw32/6.3.0/include/c++\istream ****        *  @c num_get facet) to parse the input data.
 166:c:/mingw/lib/gcc/mingw32/6.3.0/include/c++\istream ****       */
 167:c:/mingw/lib/gcc/mingw32/6.3.0/include/c++\istream ****       __istream_type&
 168:c:/mingw/lib/gcc/mingw32/6.3.0/include/c++\istream ****       operator>>(bool& __n)
 169:c:/mingw/lib/gcc/mingw32/6.3.0/include/c++\istream ****       { return _M_extract(__n); }
 170:c:/mingw/lib/gcc/mingw32/6.3.0/include/c++\istream **** 
 171:c:/mingw/lib/gcc/mingw32/6.3.0/include/c++\istream ****       __istream_type&
 172:c:/mingw/lib/gcc/mingw32/6.3.0/include/c++\istream ****       operator>>(short& __n);
 173:c:/mingw/lib/gcc/mingw32/6.3.0/include/c++\istream **** 
 174:c:/mingw/lib/gcc/mingw32/6.3.0/include/c++\istream ****       __istream_type&
 175:c:/mingw/lib/gcc/mingw32/6.3.0/include/c++\istream ****       operator>>(unsigned short& __n)
 176:c:/mingw/lib/gcc/mingw32/6.3.0/include/c++\istream ****       { return _M_extract(__n); }
 177:c:/mingw/lib/gcc/mingw32/6.3.0/include/c++\istream **** 
 178:c:/mingw/lib/gcc/mingw32/6.3.0/include/c++\istream ****       __istream_type&
 179:c:/mingw/lib/gcc/mingw32/6.3.0/include/c++\istream ****       operator>>(int& __n);
 180:c:/mingw/lib/gcc/mingw32/6.3.0/include/c++\istream **** 
 181:c:/mingw/lib/gcc/mingw32/6.3.0/include/c++\istream ****       __istream_type&
 182:c:/mingw/lib/gcc/mingw32/6.3.0/include/c++\istream ****       operator>>(unsigned int& __n)
 183:c:/mingw/lib/gcc/mingw32/6.3.0/include/c++\istream ****       { return _M_extract(__n); }
 184:c:/mingw/lib/gcc/mingw32/6.3.0/include/c++\istream **** 
 185:c:/mingw/lib/gcc/mingw32/6.3.0/include/c++\istream ****       __istream_type&
 186:c:/mingw/lib/gcc/mingw32/6.3.0/include/c++\istream ****       operator>>(long& __n)
 187:c:/mingw/lib/gcc/mingw32/6.3.0/include/c++\istream ****       { return _M_extract(__n); }
 188:c:/mingw/lib/gcc/mingw32/6.3.0/include/c++\istream **** 
 189:c:/mingw/lib/gcc/mingw32/6.3.0/include/c++\istream ****       __istream_type&
 190:c:/mingw/lib/gcc/mingw32/6.3.0/include/c++\istream ****       operator>>(unsigned long& __n)
 191:c:/mingw/lib/gcc/mingw32/6.3.0/include/c++\istream ****       { return _M_extract(__n); }
 192:c:/mingw/lib/gcc/mingw32/6.3.0/include/c++\istream **** 
 193:c:/mingw/lib/gcc/mingw32/6.3.0/include/c++\istream **** #ifdef _GLIBCXX_USE_LONG_LONG
 194:c:/mingw/lib/gcc/mingw32/6.3.0/include/c++\istream ****       __istream_type&
 195:c:/mingw/lib/gcc/mingw32/6.3.0/include/c++\istream ****       operator>>(long long& __n)
 196:c:/mingw/lib/gcc/mingw32/6.3.0/include/c++\istream ****       { return _M_extract(__n); }
 197:c:/mingw/lib/gcc/mingw32/6.3.0/include/c++\istream **** 
 198:c:/mingw/lib/gcc/mingw32/6.3.0/include/c++\istream ****       __istream_type&
 199:c:/mingw/lib/gcc/mingw32/6.3.0/include/c++\istream ****       operator>>(unsigned long long& __n)
 200:c:/mingw/lib/gcc/mingw32/6.3.0/include/c++\istream ****       { return _M_extract(__n); }
 201:c:/mingw/lib/gcc/mingw32/6.3.0/include/c++\istream **** #endif
 202:c:/mingw/lib/gcc/mingw32/6.3.0/include/c++\istream ****       //@}
 203:c:/mingw/lib/gcc/mingw32/6.3.0/include/c++\istream **** 
 204:c:/mingw/lib/gcc/mingw32/6.3.0/include/c++\istream ****       //@{
 205:c:/mingw/lib/gcc/mingw32/6.3.0/include/c++\istream ****       /**
 206:c:/mingw/lib/gcc/mingw32/6.3.0/include/c++\istream ****        *  @brief  Floating point arithmetic extractors
 207:c:/mingw/lib/gcc/mingw32/6.3.0/include/c++\istream ****        *  @param  __f A variable of builtin floating point type.
 208:c:/mingw/lib/gcc/mingw32/6.3.0/include/c++\istream ****        *  @return  @c *this if successful
 209:c:/mingw/lib/gcc/mingw32/6.3.0/include/c++\istream ****        *
 210:c:/mingw/lib/gcc/mingw32/6.3.0/include/c++\istream ****        *  These functions use the stream's current locale (specifically, the
 211:c:/mingw/lib/gcc/mingw32/6.3.0/include/c++\istream ****        *  @c num_get facet) to parse the input data.
 212:c:/mingw/lib/gcc/mingw32/6.3.0/include/c++\istream ****       */
 213:c:/mingw/lib/gcc/mingw32/6.3.0/include/c++\istream ****       __istream_type&
 214:c:/mingw/lib/gcc/mingw32/6.3.0/include/c++\istream ****       operator>>(float& __f)
 215:c:/mingw/lib/gcc/mingw32/6.3.0/include/c++\istream ****       { return _M_extract(__f); }
 216:c:/mingw/lib/gcc/mingw32/6.3.0/include/c++\istream **** 
 217:c:/mingw/lib/gcc/mingw32/6.3.0/include/c++\istream ****       __istream_type&
 218:c:/mingw/lib/gcc/mingw32/6.3.0/include/c++\istream ****       operator>>(double& __f)
 219:c:/mingw/lib/gcc/mingw32/6.3.0/include/c++\istream ****       { return _M_extract(__f); }
 186              		.loc 3 219 0
 187 002e 8D45E8   		lea	eax, [ebp-24]	 # tmp105,
 188              	LVL7:
 189 0031 B9000000 		mov	ecx, OFFSET FLAT:__ZSt3cin	 #,
 189      00
 190 0036 890424   		mov	DWORD PTR [esp], eax	 #, tmp105
 191 0039 E8000000 		call	__ZNSi10_M_extractIdEERSiRT_	 #
 191      00
 192              	LVL8:
 193 003e 83EC04   		sub	esp, 4	 #,
 194              	LVL9:
 195              	LBE73:
 196              	LBE72:
  21:Calculator.cpp ****  cin>>a;
  22:Calculator.cpp ****  cout << "2.Sayi Giriniz b= ";
 197              		.loc 2 22 0
 198 0041 C7442404 		mov	DWORD PTR [esp+4], OFFSET FLAT:LC2	 #,
 198      13000000 
 199 0049 C7042400 		mov	DWORD PTR [esp], OFFSET FLAT:__ZSt4cout	 #,
 199      000000
 200 0050 E8000000 		call	__ZStlsISt11char_traitsIcEERSt13basic_ostreamIcT_ES5_PKc	 #
 200      00
 201              	LVL10:
 202              	LBB74:
 203              	LBB75:
 204              		.loc 3 219 0
 205 0055 8D45F0   		lea	eax, [ebp-16]	 # tmp106,
 206              	LVL11:
 207 0058 B9000000 		mov	ecx, OFFSET FLAT:__ZSt3cin	 #,
 207      00
 208 005d 890424   		mov	DWORD PTR [esp], eax	 #, tmp106
 209 0060 E8000000 		call	__ZNSi10_M_extractIdEERSiRT_	 #
 209      00
 210              	LVL12:
 211 0065 83EC04   		sub	esp, 4	 #,
 212              	LVL13:
 213              	LBE75:
 214              	LBE74:
  23:Calculator.cpp ****  cin>>b;
  24:Calculator.cpp ****  cout << "Matematiksel Operatoru Giriniz +,*,/,- = ";
 215              		.loc 2 24 0
 216 0068 C7442404 		mov	DWORD PTR [esp+4], OFFSET FLAT:LC3	 #,
 216      28000000 
 217 0070 C7042400 		mov	DWORD PTR [esp], OFFSET FLAT:__ZSt4cout	 #,
 217      000000
 218 0077 E8000000 		call	__ZStlsISt11char_traitsIcEERSt13basic_ostreamIcT_ES5_PKc	 #
 218      00
 219              	LVL14:
  25:Calculator.cpp ****  cin>>op;
 220              		.loc 2 25 0
 221 007c 8D45E7   		lea	eax, [ebp-25]	 # tmp107,
 222 007f C7042400 		mov	DWORD PTR [esp], OFFSET FLAT:__ZSt3cin	 #,
 222      000000
 223 0086 89442404 		mov	DWORD PTR [esp+4], eax	 #, tmp107
 224 008a E8000000 		call	__ZStrsIcSt11char_traitsIcEERSt13basic_istreamIT_T0_ES6_RS3_	 #
 224      00
 225              	LVL15:
 226              	LBB76:
 227              	LBB77:
 228              		.file 4 "c:/mingw/lib/gcc/mingw32/6.3.0/include/c++/ostream"
   1:c:/mingw/lib/gcc/mingw32/6.3.0/include/c++\ostream **** // Output streams -*- C++ -*-
   2:c:/mingw/lib/gcc/mingw32/6.3.0/include/c++\ostream **** 
   3:c:/mingw/lib/gcc/mingw32/6.3.0/include/c++\ostream **** // Copyright (C) 1997-2016 Free Software Foundation, Inc.
   4:c:/mingw/lib/gcc/mingw32/6.3.0/include/c++\ostream **** //
   5:c:/mingw/lib/gcc/mingw32/6.3.0/include/c++\ostream **** // This file is part of the GNU ISO C++ Library.  This library is free
   6:c:/mingw/lib/gcc/mingw32/6.3.0/include/c++\ostream **** // software; you can redistribute it and/or modify it under the
   7:c:/mingw/lib/gcc/mingw32/6.3.0/include/c++\ostream **** // terms of the GNU General Public License as published by the
   8:c:/mingw/lib/gcc/mingw32/6.3.0/include/c++\ostream **** // Free Software Foundation; either version 3, or (at your option)
   9:c:/mingw/lib/gcc/mingw32/6.3.0/include/c++\ostream **** // any later version.
  10:c:/mingw/lib/gcc/mingw32/6.3.0/include/c++\ostream **** 
  11:c:/mingw/lib/gcc/mingw32/6.3.0/include/c++\ostream **** // This library is distributed in the hope that it will be useful,
  12:c:/mingw/lib/gcc/mingw32/6.3.0/include/c++\ostream **** // but WITHOUT ANY WARRANTY; without even the implied warranty of
  13:c:/mingw/lib/gcc/mingw32/6.3.0/include/c++\ostream **** // MERCHANTABILITY or FITNESS FOR A PARTICULAR PURPOSE.  See the
  14:c:/mingw/lib/gcc/mingw32/6.3.0/include/c++\ostream **** // GNU General Public License for more details.
  15:c:/mingw/lib/gcc/mingw32/6.3.0/include/c++\ostream **** 
  16:c:/mingw/lib/gcc/mingw32/6.3.0/include/c++\ostream **** // Under Section 7 of GPL version 3, you are granted additional
  17:c:/mingw/lib/gcc/mingw32/6.3.0/include/c++\ostream **** // permissions described in the GCC Runtime Library Exception, version
  18:c:/mingw/lib/gcc/mingw32/6.3.0/include/c++\ostream **** // 3.1, as published by the Free Software Foundation.
  19:c:/mingw/lib/gcc/mingw32/6.3.0/include/c++\ostream **** 
  20:c:/mingw/lib/gcc/mingw32/6.3.0/include/c++\ostream **** // You should have received a copy of the GNU General Public License and
  21:c:/mingw/lib/gcc/mingw32/6.3.0/include/c++\ostream **** // a copy of the GCC Runtime Library Exception along with this program;
  22:c:/mingw/lib/gcc/mingw32/6.3.0/include/c++\ostream **** // see the files COPYING3 and COPYING.RUNTIME respectively.  If not, see
  23:c:/mingw/lib/gcc/mingw32/6.3.0/include/c++\ostream **** // <http://www.gnu.org/licenses/>.
  24:c:/mingw/lib/gcc/mingw32/6.3.0/include/c++\ostream **** 
  25:c:/mingw/lib/gcc/mingw32/6.3.0/include/c++\ostream **** /** @file include/ostream
  26:c:/mingw/lib/gcc/mingw32/6.3.0/include/c++\ostream ****  *  This is a Standard C++ Library header.
  27:c:/mingw/lib/gcc/mingw32/6.3.0/include/c++\ostream ****  */
  28:c:/mingw/lib/gcc/mingw32/6.3.0/include/c++\ostream **** 
  29:c:/mingw/lib/gcc/mingw32/6.3.0/include/c++\ostream **** //
  30:c:/mingw/lib/gcc/mingw32/6.3.0/include/c++\ostream **** // ISO C++ 14882: 27.6.2  Output streams
  31:c:/mingw/lib/gcc/mingw32/6.3.0/include/c++\ostream **** //
  32:c:/mingw/lib/gcc/mingw32/6.3.0/include/c++\ostream **** 
  33:c:/mingw/lib/gcc/mingw32/6.3.0/include/c++\ostream **** #ifndef _GLIBCXX_OSTREAM
  34:c:/mingw/lib/gcc/mingw32/6.3.0/include/c++\ostream **** #define _GLIBCXX_OSTREAM 1
  35:c:/mingw/lib/gcc/mingw32/6.3.0/include/c++\ostream **** 
  36:c:/mingw/lib/gcc/mingw32/6.3.0/include/c++\ostream **** #pragma GCC system_header
  37:c:/mingw/lib/gcc/mingw32/6.3.0/include/c++\ostream **** 
  38:c:/mingw/lib/gcc/mingw32/6.3.0/include/c++\ostream **** #include <ios>
  39:c:/mingw/lib/gcc/mingw32/6.3.0/include/c++\ostream **** #include <bits/ostream_insert.h>
  40:c:/mingw/lib/gcc/mingw32/6.3.0/include/c++\ostream **** 
  41:c:/mingw/lib/gcc/mingw32/6.3.0/include/c++\ostream **** namespace std _GLIBCXX_VISIBILITY(default)
  42:c:/mingw/lib/gcc/mingw32/6.3.0/include/c++\ostream **** {
  43:c:/mingw/lib/gcc/mingw32/6.3.0/include/c++\ostream **** _GLIBCXX_BEGIN_NAMESPACE_VERSION
  44:c:/mingw/lib/gcc/mingw32/6.3.0/include/c++\ostream **** 
  45:c:/mingw/lib/gcc/mingw32/6.3.0/include/c++\ostream ****   /**
  46:c:/mingw/lib/gcc/mingw32/6.3.0/include/c++\ostream ****    *  @brief  Template class basic_ostream.
  47:c:/mingw/lib/gcc/mingw32/6.3.0/include/c++\ostream ****    *  @ingroup io
  48:c:/mingw/lib/gcc/mingw32/6.3.0/include/c++\ostream ****    *
  49:c:/mingw/lib/gcc/mingw32/6.3.0/include/c++\ostream ****    *  @tparam _CharT  Type of character stream.
  50:c:/mingw/lib/gcc/mingw32/6.3.0/include/c++\ostream ****    *  @tparam _Traits  Traits for character type, defaults to
  51:c:/mingw/lib/gcc/mingw32/6.3.0/include/c++\ostream ****    *                   char_traits<_CharT>.
  52:c:/mingw/lib/gcc/mingw32/6.3.0/include/c++\ostream ****    *
  53:c:/mingw/lib/gcc/mingw32/6.3.0/include/c++\ostream ****    *  This is the base class for all output streams.  It provides text
  54:c:/mingw/lib/gcc/mingw32/6.3.0/include/c++\ostream ****    *  formatting of all builtin types, and communicates with any class
  55:c:/mingw/lib/gcc/mingw32/6.3.0/include/c++\ostream ****    *  derived from basic_streambuf to do the actual output.
  56:c:/mingw/lib/gcc/mingw32/6.3.0/include/c++\ostream ****   */
  57:c:/mingw/lib/gcc/mingw32/6.3.0/include/c++\ostream ****   template<typename _CharT, typename _Traits>
  58:c:/mingw/lib/gcc/mingw32/6.3.0/include/c++\ostream ****     class basic_ostream : virtual public basic_ios<_CharT, _Traits>
  59:c:/mingw/lib/gcc/mingw32/6.3.0/include/c++\ostream ****     {
  60:c:/mingw/lib/gcc/mingw32/6.3.0/include/c++\ostream ****     public:
  61:c:/mingw/lib/gcc/mingw32/6.3.0/include/c++\ostream ****       // Types (inherited from basic_ios):
  62:c:/mingw/lib/gcc/mingw32/6.3.0/include/c++\ostream ****       typedef _CharT			 		char_type;
  63:c:/mingw/lib/gcc/mingw32/6.3.0/include/c++\ostream ****       typedef typename _Traits::int_type 		int_type;
  64:c:/mingw/lib/gcc/mingw32/6.3.0/include/c++\ostream ****       typedef typename _Traits::pos_type 		pos_type;
  65:c:/mingw/lib/gcc/mingw32/6.3.0/include/c++\ostream ****       typedef typename _Traits::off_type 		off_type;
  66:c:/mingw/lib/gcc/mingw32/6.3.0/include/c++\ostream ****       typedef _Traits			 		traits_type;
  67:c:/mingw/lib/gcc/mingw32/6.3.0/include/c++\ostream **** 
  68:c:/mingw/lib/gcc/mingw32/6.3.0/include/c++\ostream ****       // Non-standard Types:
  69:c:/mingw/lib/gcc/mingw32/6.3.0/include/c++\ostream ****       typedef basic_streambuf<_CharT, _Traits> 		__streambuf_type;
  70:c:/mingw/lib/gcc/mingw32/6.3.0/include/c++\ostream ****       typedef basic_ios<_CharT, _Traits>		__ios_type;
  71:c:/mingw/lib/gcc/mingw32/6.3.0/include/c++\ostream ****       typedef basic_ostream<_CharT, _Traits>		__ostream_type;
  72:c:/mingw/lib/gcc/mingw32/6.3.0/include/c++\ostream ****       typedef num_put<_CharT, ostreambuf_iterator<_CharT, _Traits> >
  73:c:/mingw/lib/gcc/mingw32/6.3.0/include/c++\ostream ****       							__num_put_type;
  74:c:/mingw/lib/gcc/mingw32/6.3.0/include/c++\ostream ****       typedef ctype<_CharT>	      			__ctype_type;
  75:c:/mingw/lib/gcc/mingw32/6.3.0/include/c++\ostream **** 
  76:c:/mingw/lib/gcc/mingw32/6.3.0/include/c++\ostream ****       /**
  77:c:/mingw/lib/gcc/mingw32/6.3.0/include/c++\ostream ****        *  @brief  Base constructor.
  78:c:/mingw/lib/gcc/mingw32/6.3.0/include/c++\ostream ****        *
  79:c:/mingw/lib/gcc/mingw32/6.3.0/include/c++\ostream ****        *  This ctor is almost never called by the user directly, rather from
  80:c:/mingw/lib/gcc/mingw32/6.3.0/include/c++\ostream ****        *  derived classes' initialization lists, which pass a pointer to
  81:c:/mingw/lib/gcc/mingw32/6.3.0/include/c++\ostream ****        *  their own stream buffer.
  82:c:/mingw/lib/gcc/mingw32/6.3.0/include/c++\ostream ****       */
  83:c:/mingw/lib/gcc/mingw32/6.3.0/include/c++\ostream ****       explicit
  84:c:/mingw/lib/gcc/mingw32/6.3.0/include/c++\ostream ****       basic_ostream(__streambuf_type* __sb)
  85:c:/mingw/lib/gcc/mingw32/6.3.0/include/c++\ostream ****       { this->init(__sb); }
  86:c:/mingw/lib/gcc/mingw32/6.3.0/include/c++\ostream **** 
  87:c:/mingw/lib/gcc/mingw32/6.3.0/include/c++\ostream ****       /**
  88:c:/mingw/lib/gcc/mingw32/6.3.0/include/c++\ostream ****        *  @brief  Base destructor.
  89:c:/mingw/lib/gcc/mingw32/6.3.0/include/c++\ostream ****        *
  90:c:/mingw/lib/gcc/mingw32/6.3.0/include/c++\ostream ****        *  This does very little apart from providing a virtual base dtor.
  91:c:/mingw/lib/gcc/mingw32/6.3.0/include/c++\ostream ****       */
  92:c:/mingw/lib/gcc/mingw32/6.3.0/include/c++\ostream ****       virtual
  93:c:/mingw/lib/gcc/mingw32/6.3.0/include/c++\ostream ****       ~basic_ostream() { }
  94:c:/mingw/lib/gcc/mingw32/6.3.0/include/c++\ostream **** 
  95:c:/mingw/lib/gcc/mingw32/6.3.0/include/c++\ostream ****       /// Safe prefix/suffix operations.
  96:c:/mingw/lib/gcc/mingw32/6.3.0/include/c++\ostream ****       class sentry;
  97:c:/mingw/lib/gcc/mingw32/6.3.0/include/c++\ostream ****       friend class sentry;
  98:c:/mingw/lib/gcc/mingw32/6.3.0/include/c++\ostream **** 
  99:c:/mingw/lib/gcc/mingw32/6.3.0/include/c++\ostream ****       //@{
 100:c:/mingw/lib/gcc/mingw32/6.3.0/include/c++\ostream ****       /**
 101:c:/mingw/lib/gcc/mingw32/6.3.0/include/c++\ostream ****        *  @brief  Interface for manipulators.
 102:c:/mingw/lib/gcc/mingw32/6.3.0/include/c++\ostream ****        *
 103:c:/mingw/lib/gcc/mingw32/6.3.0/include/c++\ostream ****        *  Manipulators such as @c std::endl and @c std::hex use these
 104:c:/mingw/lib/gcc/mingw32/6.3.0/include/c++\ostream ****        *  functions in constructs like "std::cout << std::endl".  For more
 105:c:/mingw/lib/gcc/mingw32/6.3.0/include/c++\ostream ****        *  information, see the iomanip header.
 106:c:/mingw/lib/gcc/mingw32/6.3.0/include/c++\ostream ****       */
 107:c:/mingw/lib/gcc/mingw32/6.3.0/include/c++\ostream ****       __ostream_type&
 108:c:/mingw/lib/gcc/mingw32/6.3.0/include/c++\ostream ****       operator<<(__ostream_type& (*__pf)(__ostream_type&))
 109:c:/mingw/lib/gcc/mingw32/6.3.0/include/c++\ostream ****       {
 110:c:/mingw/lib/gcc/mingw32/6.3.0/include/c++\ostream **** 	// _GLIBCXX_RESOLVE_LIB_DEFECTS
 111:c:/mingw/lib/gcc/mingw32/6.3.0/include/c++\ostream **** 	// DR 60. What is a formatted input function?
 112:c:/mingw/lib/gcc/mingw32/6.3.0/include/c++\ostream **** 	// The inserters for manipulators are *not* formatted output functions.
 113:c:/mingw/lib/gcc/mingw32/6.3.0/include/c++\ostream **** 	return __pf(*this);
 229              		.loc 4 113 0
 230 008f C7042400 		mov	DWORD PTR [esp], OFFSET FLAT:__ZSt4cout	 #,
 230      000000
 231 0096 E8000000 		call	__ZSt4endlIcSt11char_traitsIcEERSt13basic_ostreamIT_T0_ES6_	 #
 231      00
 232              	LVL16:
 233              	LBE77:
 234              	LBE76:
  26:Calculator.cpp ****  cout << endl;
  27:Calculator.cpp ****  switch (op) {
 235              		.loc 2 27 0
 236 009b 0FB645E7 		movzx	eax, BYTE PTR [ebp-25]	 # op.0_8, op
 237 009f 3C2B     		cmp	al, 43	 # op.0_8,
 238 00a1 0F84AD00 		je	L8	 #,
 238      0000
 239 00a7 7E76     		jle	L17	 #,
 240 00a9 3C2D     		cmp	al, 45	 # op.0_8,
 241 00ab 7457     		je	L11	 #,
 242 00ad 3C2F     		cmp	al, 47	 # op.0_8,
 243 00af 0F858900 		jne	L7	 #,
 243      0000
 244              	LVL17:
 245              	LBB78:
 246              	LBB79:
  12:Calculator.cpp **** }
 247              		.loc 2 12 0
 248 00b5 DD45E8   		fld	QWORD PTR [ebp-24]	 # a
 249              	LBE79:
 250              	LBE78:
 251              	LBB81:
 252              	LBB82:
 114:c:/mingw/lib/gcc/mingw32/6.3.0/include/c++\ostream ****       }
 115:c:/mingw/lib/gcc/mingw32/6.3.0/include/c++\ostream **** 
 116:c:/mingw/lib/gcc/mingw32/6.3.0/include/c++\ostream ****       __ostream_type&
 117:c:/mingw/lib/gcc/mingw32/6.3.0/include/c++\ostream ****       operator<<(__ios_type& (*__pf)(__ios_type&))
 118:c:/mingw/lib/gcc/mingw32/6.3.0/include/c++\ostream ****       {
 119:c:/mingw/lib/gcc/mingw32/6.3.0/include/c++\ostream **** 	// _GLIBCXX_RESOLVE_LIB_DEFECTS
 120:c:/mingw/lib/gcc/mingw32/6.3.0/include/c++\ostream **** 	// DR 60. What is a formatted input function?
 121:c:/mingw/lib/gcc/mingw32/6.3.0/include/c++\ostream **** 	// The inserters for manipulators are *not* formatted output functions.
 122:c:/mingw/lib/gcc/mingw32/6.3.0/include/c++\ostream **** 	__pf(*this);
 123:c:/mingw/lib/gcc/mingw32/6.3.0/include/c++\ostream **** 	return *this;
 124:c:/mingw/lib/gcc/mingw32/6.3.0/include/c++\ostream ****       }
 125:c:/mingw/lib/gcc/mingw32/6.3.0/include/c++\ostream **** 
 126:c:/mingw/lib/gcc/mingw32/6.3.0/include/c++\ostream ****       __ostream_type&
 127:c:/mingw/lib/gcc/mingw32/6.3.0/include/c++\ostream ****       operator<<(ios_base& (*__pf) (ios_base&))
 128:c:/mingw/lib/gcc/mingw32/6.3.0/include/c++\ostream ****       {
 129:c:/mingw/lib/gcc/mingw32/6.3.0/include/c++\ostream **** 	// _GLIBCXX_RESOLVE_LIB_DEFECTS
 130:c:/mingw/lib/gcc/mingw32/6.3.0/include/c++\ostream **** 	// DR 60. What is a formatted input function?
 131:c:/mingw/lib/gcc/mingw32/6.3.0/include/c++\ostream **** 	// The inserters for manipulators are *not* formatted output functions.
 132:c:/mingw/lib/gcc/mingw32/6.3.0/include/c++\ostream **** 	__pf(*this);
 133:c:/mingw/lib/gcc/mingw32/6.3.0/include/c++\ostream **** 	return *this;
 134:c:/mingw/lib/gcc/mingw32/6.3.0/include/c++\ostream ****       }
 135:c:/mingw/lib/gcc/mingw32/6.3.0/include/c++\ostream ****       //@}
 136:c:/mingw/lib/gcc/mingw32/6.3.0/include/c++\ostream **** 
 137:c:/mingw/lib/gcc/mingw32/6.3.0/include/c++\ostream ****       //@{
 138:c:/mingw/lib/gcc/mingw32/6.3.0/include/c++\ostream ****       /**
 139:c:/mingw/lib/gcc/mingw32/6.3.0/include/c++\ostream ****        *  @name Inserters
 140:c:/mingw/lib/gcc/mingw32/6.3.0/include/c++\ostream ****        *
 141:c:/mingw/lib/gcc/mingw32/6.3.0/include/c++\ostream ****        *  All the @c operator<< functions (aka <em>formatted output
 142:c:/mingw/lib/gcc/mingw32/6.3.0/include/c++\ostream ****        *  functions</em>) have some common behavior.  Each starts by
 143:c:/mingw/lib/gcc/mingw32/6.3.0/include/c++\ostream ****        *  constructing a temporary object of type std::basic_ostream::sentry.
 144:c:/mingw/lib/gcc/mingw32/6.3.0/include/c++\ostream ****        *  This can have several effects, concluding with the setting of a
 145:c:/mingw/lib/gcc/mingw32/6.3.0/include/c++\ostream ****        *  status flag; see the sentry documentation for more.
 146:c:/mingw/lib/gcc/mingw32/6.3.0/include/c++\ostream ****        *
 147:c:/mingw/lib/gcc/mingw32/6.3.0/include/c++\ostream ****        *  If the sentry status is good, the function tries to generate
 148:c:/mingw/lib/gcc/mingw32/6.3.0/include/c++\ostream ****        *  whatever data is appropriate for the type of the argument.
 149:c:/mingw/lib/gcc/mingw32/6.3.0/include/c++\ostream ****        *
 150:c:/mingw/lib/gcc/mingw32/6.3.0/include/c++\ostream ****        *  If an exception is thrown during insertion, ios_base::badbit
 151:c:/mingw/lib/gcc/mingw32/6.3.0/include/c++\ostream ****        *  will be turned on in the stream's error state without causing an
 152:c:/mingw/lib/gcc/mingw32/6.3.0/include/c++\ostream ****        *  ios_base::failure to be thrown.  The original exception will then
 153:c:/mingw/lib/gcc/mingw32/6.3.0/include/c++\ostream ****        *  be rethrown.
 154:c:/mingw/lib/gcc/mingw32/6.3.0/include/c++\ostream ****       */
 155:c:/mingw/lib/gcc/mingw32/6.3.0/include/c++\ostream **** 
 156:c:/mingw/lib/gcc/mingw32/6.3.0/include/c++\ostream ****       //@{
 157:c:/mingw/lib/gcc/mingw32/6.3.0/include/c++\ostream ****       /**
 158:c:/mingw/lib/gcc/mingw32/6.3.0/include/c++\ostream ****        *  @brief Integer arithmetic inserters
 159:c:/mingw/lib/gcc/mingw32/6.3.0/include/c++\ostream ****        *  @param  __n A variable of builtin integral type.
 160:c:/mingw/lib/gcc/mingw32/6.3.0/include/c++\ostream ****        *  @return  @c *this if successful
 161:c:/mingw/lib/gcc/mingw32/6.3.0/include/c++\ostream ****        *
 162:c:/mingw/lib/gcc/mingw32/6.3.0/include/c++\ostream ****        *  These functions use the stream's current locale (specifically, the
 163:c:/mingw/lib/gcc/mingw32/6.3.0/include/c++\ostream ****        *  @c num_get facet) to perform numeric formatting.
 164:c:/mingw/lib/gcc/mingw32/6.3.0/include/c++\ostream ****       */
 165:c:/mingw/lib/gcc/mingw32/6.3.0/include/c++\ostream ****       __ostream_type&
 166:c:/mingw/lib/gcc/mingw32/6.3.0/include/c++\ostream ****       operator<<(long __n)
 167:c:/mingw/lib/gcc/mingw32/6.3.0/include/c++\ostream ****       { return _M_insert(__n); }
 168:c:/mingw/lib/gcc/mingw32/6.3.0/include/c++\ostream **** 
 169:c:/mingw/lib/gcc/mingw32/6.3.0/include/c++\ostream ****       __ostream_type&
 170:c:/mingw/lib/gcc/mingw32/6.3.0/include/c++\ostream ****       operator<<(unsigned long __n)
 171:c:/mingw/lib/gcc/mingw32/6.3.0/include/c++\ostream ****       { return _M_insert(__n); }
 172:c:/mingw/lib/gcc/mingw32/6.3.0/include/c++\ostream **** 
 173:c:/mingw/lib/gcc/mingw32/6.3.0/include/c++\ostream ****       __ostream_type&
 174:c:/mingw/lib/gcc/mingw32/6.3.0/include/c++\ostream ****       operator<<(bool __n)
 175:c:/mingw/lib/gcc/mingw32/6.3.0/include/c++\ostream ****       { return _M_insert(__n); }
 176:c:/mingw/lib/gcc/mingw32/6.3.0/include/c++\ostream **** 
 177:c:/mingw/lib/gcc/mingw32/6.3.0/include/c++\ostream ****       __ostream_type&
 178:c:/mingw/lib/gcc/mingw32/6.3.0/include/c++\ostream ****       operator<<(short __n);
 179:c:/mingw/lib/gcc/mingw32/6.3.0/include/c++\ostream **** 
 180:c:/mingw/lib/gcc/mingw32/6.3.0/include/c++\ostream ****       __ostream_type&
 181:c:/mingw/lib/gcc/mingw32/6.3.0/include/c++\ostream ****       operator<<(unsigned short __n)
 182:c:/mingw/lib/gcc/mingw32/6.3.0/include/c++\ostream ****       {
 183:c:/mingw/lib/gcc/mingw32/6.3.0/include/c++\ostream **** 	// _GLIBCXX_RESOLVE_LIB_DEFECTS
 184:c:/mingw/lib/gcc/mingw32/6.3.0/include/c++\ostream **** 	// 117. basic_ostream uses nonexistent num_put member functions.
 185:c:/mingw/lib/gcc/mingw32/6.3.0/include/c++\ostream **** 	return _M_insert(static_cast<unsigned long>(__n));
 186:c:/mingw/lib/gcc/mingw32/6.3.0/include/c++\ostream ****       }
 187:c:/mingw/lib/gcc/mingw32/6.3.0/include/c++\ostream **** 
 188:c:/mingw/lib/gcc/mingw32/6.3.0/include/c++\ostream ****       __ostream_type&
 189:c:/mingw/lib/gcc/mingw32/6.3.0/include/c++\ostream ****       operator<<(int __n);
 190:c:/mingw/lib/gcc/mingw32/6.3.0/include/c++\ostream **** 
 191:c:/mingw/lib/gcc/mingw32/6.3.0/include/c++\ostream ****       __ostream_type&
 192:c:/mingw/lib/gcc/mingw32/6.3.0/include/c++\ostream ****       operator<<(unsigned int __n)
 193:c:/mingw/lib/gcc/mingw32/6.3.0/include/c++\ostream ****       {
 194:c:/mingw/lib/gcc/mingw32/6.3.0/include/c++\ostream **** 	// _GLIBCXX_RESOLVE_LIB_DEFECTS
 195:c:/mingw/lib/gcc/mingw32/6.3.0/include/c++\ostream **** 	// 117. basic_ostream uses nonexistent num_put member functions.
 196:c:/mingw/lib/gcc/mingw32/6.3.0/include/c++\ostream **** 	return _M_insert(static_cast<unsigned long>(__n));
 197:c:/mingw/lib/gcc/mingw32/6.3.0/include/c++\ostream ****       }
 198:c:/mingw/lib/gcc/mingw32/6.3.0/include/c++\ostream **** 
 199:c:/mingw/lib/gcc/mingw32/6.3.0/include/c++\ostream **** #ifdef _GLIBCXX_USE_LONG_LONG
 200:c:/mingw/lib/gcc/mingw32/6.3.0/include/c++\ostream ****       __ostream_type&
 201:c:/mingw/lib/gcc/mingw32/6.3.0/include/c++\ostream ****       operator<<(long long __n)
 202:c:/mingw/lib/gcc/mingw32/6.3.0/include/c++\ostream ****       { return _M_insert(__n); }
 203:c:/mingw/lib/gcc/mingw32/6.3.0/include/c++\ostream **** 
 204:c:/mingw/lib/gcc/mingw32/6.3.0/include/c++\ostream ****       __ostream_type&
 205:c:/mingw/lib/gcc/mingw32/6.3.0/include/c++\ostream ****       operator<<(unsigned long long __n)
 206:c:/mingw/lib/gcc/mingw32/6.3.0/include/c++\ostream ****       { return _M_insert(__n); }
 207:c:/mingw/lib/gcc/mingw32/6.3.0/include/c++\ostream **** #endif
 208:c:/mingw/lib/gcc/mingw32/6.3.0/include/c++\ostream ****       //@}
 209:c:/mingw/lib/gcc/mingw32/6.3.0/include/c++\ostream **** 
 210:c:/mingw/lib/gcc/mingw32/6.3.0/include/c++\ostream ****       //@{
 211:c:/mingw/lib/gcc/mingw32/6.3.0/include/c++\ostream ****       /**
 212:c:/mingw/lib/gcc/mingw32/6.3.0/include/c++\ostream ****        *  @brief  Floating point arithmetic inserters
 213:c:/mingw/lib/gcc/mingw32/6.3.0/include/c++\ostream ****        *  @param  __f A variable of builtin floating point type.
 214:c:/mingw/lib/gcc/mingw32/6.3.0/include/c++\ostream ****        *  @return  @c *this if successful
 215:c:/mingw/lib/gcc/mingw32/6.3.0/include/c++\ostream ****        *
 216:c:/mingw/lib/gcc/mingw32/6.3.0/include/c++\ostream ****        *  These functions use the stream's current locale (specifically, the
 217:c:/mingw/lib/gcc/mingw32/6.3.0/include/c++\ostream ****        *  @c num_get facet) to perform numeric formatting.
 218:c:/mingw/lib/gcc/mingw32/6.3.0/include/c++\ostream ****       */
 219:c:/mingw/lib/gcc/mingw32/6.3.0/include/c++\ostream ****       __ostream_type&
 220:c:/mingw/lib/gcc/mingw32/6.3.0/include/c++\ostream ****       operator<<(double __f)
 221:c:/mingw/lib/gcc/mingw32/6.3.0/include/c++\ostream ****       { return _M_insert(__f); }
 222:c:/mingw/lib/gcc/mingw32/6.3.0/include/c++\ostream **** 
 223:c:/mingw/lib/gcc/mingw32/6.3.0/include/c++\ostream ****       __ostream_type&
 224:c:/mingw/lib/gcc/mingw32/6.3.0/include/c++\ostream ****       operator<<(float __f)
 225:c:/mingw/lib/gcc/mingw32/6.3.0/include/c++\ostream ****       {
 226:c:/mingw/lib/gcc/mingw32/6.3.0/include/c++\ostream **** 	// _GLIBCXX_RESOLVE_LIB_DEFECTS
 227:c:/mingw/lib/gcc/mingw32/6.3.0/include/c++\ostream **** 	// 117. basic_ostream uses nonexistent num_put member functions.
 228:c:/mingw/lib/gcc/mingw32/6.3.0/include/c++\ostream **** 	return _M_insert(static_cast<double>(__f));
 229:c:/mingw/lib/gcc/mingw32/6.3.0/include/c++\ostream ****       }
 230:c:/mingw/lib/gcc/mingw32/6.3.0/include/c++\ostream **** 
 231:c:/mingw/lib/gcc/mingw32/6.3.0/include/c++\ostream ****       __ostream_type&
 232:c:/mingw/lib/gcc/mingw32/6.3.0/include/c++\ostream ****       operator<<(long double __f)
 233:c:/mingw/lib/gcc/mingw32/6.3.0/include/c++\ostream ****       { return _M_insert(__f); }
 234:c:/mingw/lib/gcc/mingw32/6.3.0/include/c++\ostream ****       //@}
 235:c:/mingw/lib/gcc/mingw32/6.3.0/include/c++\ostream **** 
 236:c:/mingw/lib/gcc/mingw32/6.3.0/include/c++\ostream ****       /**
 237:c:/mingw/lib/gcc/mingw32/6.3.0/include/c++\ostream ****        *  @brief  Pointer arithmetic inserters
 238:c:/mingw/lib/gcc/mingw32/6.3.0/include/c++\ostream ****        *  @param  __p A variable of pointer type.
 239:c:/mingw/lib/gcc/mingw32/6.3.0/include/c++\ostream ****        *  @return  @c *this if successful
 240:c:/mingw/lib/gcc/mingw32/6.3.0/include/c++\ostream ****        *
 241:c:/mingw/lib/gcc/mingw32/6.3.0/include/c++\ostream ****        *  These functions use the stream's current locale (specifically, the
 242:c:/mingw/lib/gcc/mingw32/6.3.0/include/c++\ostream ****        *  @c num_get facet) to perform numeric formatting.
 243:c:/mingw/lib/gcc/mingw32/6.3.0/include/c++\ostream ****       */
 244:c:/mingw/lib/gcc/mingw32/6.3.0/include/c++\ostream ****       __ostream_type&
 245:c:/mingw/lib/gcc/mingw32/6.3.0/include/c++\ostream ****       operator<<(const void* __p)
 246:c:/mingw/lib/gcc/mingw32/6.3.0/include/c++\ostream ****       { return _M_insert(__p); }
 247:c:/mingw/lib/gcc/mingw32/6.3.0/include/c++\ostream **** 
 248:c:/mingw/lib/gcc/mingw32/6.3.0/include/c++\ostream ****       /**
 249:c:/mingw/lib/gcc/mingw32/6.3.0/include/c++\ostream ****        *  @brief  Extracting from another streambuf.
 250:c:/mingw/lib/gcc/mingw32/6.3.0/include/c++\ostream ****        *  @param  __sb  A pointer to a streambuf
 251:c:/mingw/lib/gcc/mingw32/6.3.0/include/c++\ostream ****        *
 252:c:/mingw/lib/gcc/mingw32/6.3.0/include/c++\ostream ****        *  This function behaves like one of the basic arithmetic extractors,
 253:c:/mingw/lib/gcc/mingw32/6.3.0/include/c++\ostream ****        *  in that it also constructs a sentry object and has the same error
 254:c:/mingw/lib/gcc/mingw32/6.3.0/include/c++\ostream ****        *  handling behavior.
 255:c:/mingw/lib/gcc/mingw32/6.3.0/include/c++\ostream ****        *
 256:c:/mingw/lib/gcc/mingw32/6.3.0/include/c++\ostream ****        *  If @p __sb is NULL, the stream will set failbit in its error state.
 257:c:/mingw/lib/gcc/mingw32/6.3.0/include/c++\ostream ****        *
 258:c:/mingw/lib/gcc/mingw32/6.3.0/include/c++\ostream ****        *  Characters are extracted from @p __sb and inserted into @c *this
 259:c:/mingw/lib/gcc/mingw32/6.3.0/include/c++\ostream ****        *  until one of the following occurs:
 260:c:/mingw/lib/gcc/mingw32/6.3.0/include/c++\ostream ****        *
 261:c:/mingw/lib/gcc/mingw32/6.3.0/include/c++\ostream ****        *  - the input stream reaches end-of-file,
 262:c:/mingw/lib/gcc/mingw32/6.3.0/include/c++\ostream ****        *  - insertion into the output sequence fails (in this case, the
 263:c:/mingw/lib/gcc/mingw32/6.3.0/include/c++\ostream ****        *    character that would have been inserted is not extracted), or
 264:c:/mingw/lib/gcc/mingw32/6.3.0/include/c++\ostream ****        *  - an exception occurs while getting a character from @p __sb, which
 265:c:/mingw/lib/gcc/mingw32/6.3.0/include/c++\ostream ****        *    sets failbit in the error state
 266:c:/mingw/lib/gcc/mingw32/6.3.0/include/c++\ostream ****        *
 267:c:/mingw/lib/gcc/mingw32/6.3.0/include/c++\ostream ****        *  If the function inserts no characters, failbit is set.
 268:c:/mingw/lib/gcc/mingw32/6.3.0/include/c++\ostream ****       */
 269:c:/mingw/lib/gcc/mingw32/6.3.0/include/c++\ostream ****       __ostream_type&
 270:c:/mingw/lib/gcc/mingw32/6.3.0/include/c++\ostream ****       operator<<(__streambuf_type* __sb);
 271:c:/mingw/lib/gcc/mingw32/6.3.0/include/c++\ostream ****       //@}
 272:c:/mingw/lib/gcc/mingw32/6.3.0/include/c++\ostream **** 
 273:c:/mingw/lib/gcc/mingw32/6.3.0/include/c++\ostream ****       //@{
 274:c:/mingw/lib/gcc/mingw32/6.3.0/include/c++\ostream ****       /**
 275:c:/mingw/lib/gcc/mingw32/6.3.0/include/c++\ostream ****        *  @name Unformatted Output Functions
 276:c:/mingw/lib/gcc/mingw32/6.3.0/include/c++\ostream ****        *
 277:c:/mingw/lib/gcc/mingw32/6.3.0/include/c++\ostream ****        *  All the unformatted output functions have some common behavior.
 278:c:/mingw/lib/gcc/mingw32/6.3.0/include/c++\ostream ****        *  Each starts by constructing a temporary object of type
 279:c:/mingw/lib/gcc/mingw32/6.3.0/include/c++\ostream ****        *  std::basic_ostream::sentry.  This has several effects, concluding
 280:c:/mingw/lib/gcc/mingw32/6.3.0/include/c++\ostream ****        *  with the setting of a status flag; see the sentry documentation
 281:c:/mingw/lib/gcc/mingw32/6.3.0/include/c++\ostream ****        *  for more.
 282:c:/mingw/lib/gcc/mingw32/6.3.0/include/c++\ostream ****        *
 283:c:/mingw/lib/gcc/mingw32/6.3.0/include/c++\ostream ****        *  If the sentry status is good, the function tries to generate
 284:c:/mingw/lib/gcc/mingw32/6.3.0/include/c++\ostream ****        *  whatever data is appropriate for the type of the argument.
 285:c:/mingw/lib/gcc/mingw32/6.3.0/include/c++\ostream ****        *
 286:c:/mingw/lib/gcc/mingw32/6.3.0/include/c++\ostream ****        *  If an exception is thrown during insertion, ios_base::badbit
 287:c:/mingw/lib/gcc/mingw32/6.3.0/include/c++\ostream ****        *  will be turned on in the stream's error state.  If badbit is on in
 288:c:/mingw/lib/gcc/mingw32/6.3.0/include/c++\ostream ****        *  the stream's exceptions mask, the exception will be rethrown
 289:c:/mingw/lib/gcc/mingw32/6.3.0/include/c++\ostream ****        *  without completing its actions.
 290:c:/mingw/lib/gcc/mingw32/6.3.0/include/c++\ostream ****       */
 291:c:/mingw/lib/gcc/mingw32/6.3.0/include/c++\ostream **** 
 292:c:/mingw/lib/gcc/mingw32/6.3.0/include/c++\ostream ****       /**
 293:c:/mingw/lib/gcc/mingw32/6.3.0/include/c++\ostream ****        *  @brief  Simple insertion.
 294:c:/mingw/lib/gcc/mingw32/6.3.0/include/c++\ostream ****        *  @param  __c  The character to insert.
 295:c:/mingw/lib/gcc/mingw32/6.3.0/include/c++\ostream ****        *  @return  *this
 296:c:/mingw/lib/gcc/mingw32/6.3.0/include/c++\ostream ****        *
 297:c:/mingw/lib/gcc/mingw32/6.3.0/include/c++\ostream ****        *  Tries to insert @p __c.
 298:c:/mingw/lib/gcc/mingw32/6.3.0/include/c++\ostream ****        *
 299:c:/mingw/lib/gcc/mingw32/6.3.0/include/c++\ostream ****        *  @note  This function is not overloaded on signed char and
 300:c:/mingw/lib/gcc/mingw32/6.3.0/include/c++\ostream ****        *         unsigned char.
 301:c:/mingw/lib/gcc/mingw32/6.3.0/include/c++\ostream ****       */
 302:c:/mingw/lib/gcc/mingw32/6.3.0/include/c++\ostream ****       __ostream_type&
 303:c:/mingw/lib/gcc/mingw32/6.3.0/include/c++\ostream ****       put(char_type __c);
 304:c:/mingw/lib/gcc/mingw32/6.3.0/include/c++\ostream **** 
 305:c:/mingw/lib/gcc/mingw32/6.3.0/include/c++\ostream ****       /**
 306:c:/mingw/lib/gcc/mingw32/6.3.0/include/c++\ostream ****        *  @brief  Core write functionality, without sentry.
 307:c:/mingw/lib/gcc/mingw32/6.3.0/include/c++\ostream ****        *  @param  __s  The array to insert.
 308:c:/mingw/lib/gcc/mingw32/6.3.0/include/c++\ostream ****        *  @param  __n  Maximum number of characters to insert.
 309:c:/mingw/lib/gcc/mingw32/6.3.0/include/c++\ostream ****       */
 310:c:/mingw/lib/gcc/mingw32/6.3.0/include/c++\ostream ****       void
 311:c:/mingw/lib/gcc/mingw32/6.3.0/include/c++\ostream ****       _M_write(const char_type* __s, streamsize __n)
 312:c:/mingw/lib/gcc/mingw32/6.3.0/include/c++\ostream ****       {
 313:c:/mingw/lib/gcc/mingw32/6.3.0/include/c++\ostream **** 	const streamsize __put = this->rdbuf()->sputn(__s, __n);
 314:c:/mingw/lib/gcc/mingw32/6.3.0/include/c++\ostream **** 	if (__put != __n)
 315:c:/mingw/lib/gcc/mingw32/6.3.0/include/c++\ostream **** 	  this->setstate(ios_base::badbit);
 316:c:/mingw/lib/gcc/mingw32/6.3.0/include/c++\ostream ****       }
 317:c:/mingw/lib/gcc/mingw32/6.3.0/include/c++\ostream **** 
 318:c:/mingw/lib/gcc/mingw32/6.3.0/include/c++\ostream ****       /**
 319:c:/mingw/lib/gcc/mingw32/6.3.0/include/c++\ostream ****        *  @brief  Character string insertion.
 320:c:/mingw/lib/gcc/mingw32/6.3.0/include/c++\ostream ****        *  @param  __s  The array to insert.
 321:c:/mingw/lib/gcc/mingw32/6.3.0/include/c++\ostream ****        *  @param  __n  Maximum number of characters to insert.
 322:c:/mingw/lib/gcc/mingw32/6.3.0/include/c++\ostream ****        *  @return  *this
 323:c:/mingw/lib/gcc/mingw32/6.3.0/include/c++\ostream ****        *
 324:c:/mingw/lib/gcc/mingw32/6.3.0/include/c++\ostream ****        *  Characters are copied from @p __s and inserted into the stream until
 325:c:/mingw/lib/gcc/mingw32/6.3.0/include/c++\ostream ****        *  one of the following happens:
 326:c:/mingw/lib/gcc/mingw32/6.3.0/include/c++\ostream ****        *
 327:c:/mingw/lib/gcc/mingw32/6.3.0/include/c++\ostream ****        *  - @p __n characters are inserted
 328:c:/mingw/lib/gcc/mingw32/6.3.0/include/c++\ostream ****        *  - inserting into the output sequence fails (in this case, badbit
 329:c:/mingw/lib/gcc/mingw32/6.3.0/include/c++\ostream ****        *    will be set in the stream's error state)
 330:c:/mingw/lib/gcc/mingw32/6.3.0/include/c++\ostream ****        *
 331:c:/mingw/lib/gcc/mingw32/6.3.0/include/c++\ostream ****        *  @note  This function is not overloaded on signed char and
 332:c:/mingw/lib/gcc/mingw32/6.3.0/include/c++\ostream ****        *         unsigned char.
 333:c:/mingw/lib/gcc/mingw32/6.3.0/include/c++\ostream ****       */
 334:c:/mingw/lib/gcc/mingw32/6.3.0/include/c++\ostream ****       __ostream_type&
 335:c:/mingw/lib/gcc/mingw32/6.3.0/include/c++\ostream ****       write(const char_type* __s, streamsize __n);
 336:c:/mingw/lib/gcc/mingw32/6.3.0/include/c++\ostream ****       //@}
 337:c:/mingw/lib/gcc/mingw32/6.3.0/include/c++\ostream **** 
 338:c:/mingw/lib/gcc/mingw32/6.3.0/include/c++\ostream ****       /**
 339:c:/mingw/lib/gcc/mingw32/6.3.0/include/c++\ostream ****        *  @brief  Synchronizing the stream buffer.
 340:c:/mingw/lib/gcc/mingw32/6.3.0/include/c++\ostream ****        *  @return  *this
 341:c:/mingw/lib/gcc/mingw32/6.3.0/include/c++\ostream ****        *
 342:c:/mingw/lib/gcc/mingw32/6.3.0/include/c++\ostream ****        *  If @c rdbuf() is a null pointer, changes nothing.
 343:c:/mingw/lib/gcc/mingw32/6.3.0/include/c++\ostream ****        *
 344:c:/mingw/lib/gcc/mingw32/6.3.0/include/c++\ostream ****        *  Otherwise, calls @c rdbuf()->pubsync(), and if that returns -1,
 345:c:/mingw/lib/gcc/mingw32/6.3.0/include/c++\ostream ****        *  sets badbit.
 346:c:/mingw/lib/gcc/mingw32/6.3.0/include/c++\ostream ****       */
 347:c:/mingw/lib/gcc/mingw32/6.3.0/include/c++\ostream ****       __ostream_type&
 348:c:/mingw/lib/gcc/mingw32/6.3.0/include/c++\ostream ****       flush();
 349:c:/mingw/lib/gcc/mingw32/6.3.0/include/c++\ostream **** 
 350:c:/mingw/lib/gcc/mingw32/6.3.0/include/c++\ostream ****       /**
 351:c:/mingw/lib/gcc/mingw32/6.3.0/include/c++\ostream ****        *  @brief  Getting the current write position.
 352:c:/mingw/lib/gcc/mingw32/6.3.0/include/c++\ostream ****        *  @return  A file position object.
 353:c:/mingw/lib/gcc/mingw32/6.3.0/include/c++\ostream ****        *
 354:c:/mingw/lib/gcc/mingw32/6.3.0/include/c++\ostream ****        *  If @c fail() is not false, returns @c pos_type(-1) to indicate
 355:c:/mingw/lib/gcc/mingw32/6.3.0/include/c++\ostream ****        *  failure.  Otherwise returns @c rdbuf()->pubseekoff(0,cur,out).
 356:c:/mingw/lib/gcc/mingw32/6.3.0/include/c++\ostream ****       */
 357:c:/mingw/lib/gcc/mingw32/6.3.0/include/c++\ostream ****       pos_type
 358:c:/mingw/lib/gcc/mingw32/6.3.0/include/c++\ostream ****       tellp();
 359:c:/mingw/lib/gcc/mingw32/6.3.0/include/c++\ostream **** 
 360:c:/mingw/lib/gcc/mingw32/6.3.0/include/c++\ostream ****       /**
 361:c:/mingw/lib/gcc/mingw32/6.3.0/include/c++\ostream ****        *  @brief  Changing the current write position.
 362:c:/mingw/lib/gcc/mingw32/6.3.0/include/c++\ostream ****        *  @param  __pos  A file position object.
 363:c:/mingw/lib/gcc/mingw32/6.3.0/include/c++\ostream ****        *  @return  *this
 364:c:/mingw/lib/gcc/mingw32/6.3.0/include/c++\ostream ****        *
 365:c:/mingw/lib/gcc/mingw32/6.3.0/include/c++\ostream ****        *  If @c fail() is not true, calls @c rdbuf()->pubseekpos(pos).  If
 366:c:/mingw/lib/gcc/mingw32/6.3.0/include/c++\ostream ****        *  that function fails, sets failbit.
 367:c:/mingw/lib/gcc/mingw32/6.3.0/include/c++\ostream ****       */
 368:c:/mingw/lib/gcc/mingw32/6.3.0/include/c++\ostream ****       __ostream_type&
 369:c:/mingw/lib/gcc/mingw32/6.3.0/include/c++\ostream ****       seekp(pos_type);
 370:c:/mingw/lib/gcc/mingw32/6.3.0/include/c++\ostream **** 
 371:c:/mingw/lib/gcc/mingw32/6.3.0/include/c++\ostream ****       /**
 372:c:/mingw/lib/gcc/mingw32/6.3.0/include/c++\ostream ****        *  @brief  Changing the current write position.
 373:c:/mingw/lib/gcc/mingw32/6.3.0/include/c++\ostream ****        *  @param  __off  A file offset object.
 374:c:/mingw/lib/gcc/mingw32/6.3.0/include/c++\ostream ****        *  @param  __dir  The direction in which to seek.
 375:c:/mingw/lib/gcc/mingw32/6.3.0/include/c++\ostream ****        *  @return  *this
 376:c:/mingw/lib/gcc/mingw32/6.3.0/include/c++\ostream ****        *
 377:c:/mingw/lib/gcc/mingw32/6.3.0/include/c++\ostream ****        *  If @c fail() is not true, calls @c rdbuf()->pubseekoff(off,dir).
 378:c:/mingw/lib/gcc/mingw32/6.3.0/include/c++\ostream ****        *  If that function fails, sets failbit.
 379:c:/mingw/lib/gcc/mingw32/6.3.0/include/c++\ostream ****       */
 380:c:/mingw/lib/gcc/mingw32/6.3.0/include/c++\ostream ****        __ostream_type&
 381:c:/mingw/lib/gcc/mingw32/6.3.0/include/c++\ostream ****       seekp(off_type, ios_base::seekdir);
 382:c:/mingw/lib/gcc/mingw32/6.3.0/include/c++\ostream **** 
 383:c:/mingw/lib/gcc/mingw32/6.3.0/include/c++\ostream ****     protected:
 384:c:/mingw/lib/gcc/mingw32/6.3.0/include/c++\ostream ****       basic_ostream()
 385:c:/mingw/lib/gcc/mingw32/6.3.0/include/c++\ostream ****       { this->init(0); }
 386:c:/mingw/lib/gcc/mingw32/6.3.0/include/c++\ostream **** 
 387:c:/mingw/lib/gcc/mingw32/6.3.0/include/c++\ostream **** #if __cplusplus >= 201103L
 388:c:/mingw/lib/gcc/mingw32/6.3.0/include/c++\ostream ****       // Non-standard constructor that does not call init()
 389:c:/mingw/lib/gcc/mingw32/6.3.0/include/c++\ostream ****       basic_ostream(basic_iostream<_CharT, _Traits>&) { }
 390:c:/mingw/lib/gcc/mingw32/6.3.0/include/c++\ostream **** 
 391:c:/mingw/lib/gcc/mingw32/6.3.0/include/c++\ostream ****       basic_ostream(const basic_ostream&) = delete;
 392:c:/mingw/lib/gcc/mingw32/6.3.0/include/c++\ostream **** 
 393:c:/mingw/lib/gcc/mingw32/6.3.0/include/c++\ostream ****       basic_ostream(basic_ostream&& __rhs)
 394:c:/mingw/lib/gcc/mingw32/6.3.0/include/c++\ostream ****       : __ios_type()
 395:c:/mingw/lib/gcc/mingw32/6.3.0/include/c++\ostream ****       { __ios_type::move(__rhs); }
 396:c:/mingw/lib/gcc/mingw32/6.3.0/include/c++\ostream **** 
 397:c:/mingw/lib/gcc/mingw32/6.3.0/include/c++\ostream ****       // 27.7.3.3 Assign/swap
 398:c:/mingw/lib/gcc/mingw32/6.3.0/include/c++\ostream **** 
 399:c:/mingw/lib/gcc/mingw32/6.3.0/include/c++\ostream ****       basic_ostream& operator=(const basic_ostream&) = delete;
 400:c:/mingw/lib/gcc/mingw32/6.3.0/include/c++\ostream **** 
 401:c:/mingw/lib/gcc/mingw32/6.3.0/include/c++\ostream ****       basic_ostream&
 402:c:/mingw/lib/gcc/mingw32/6.3.0/include/c++\ostream ****       operator=(basic_ostream&& __rhs)
 403:c:/mingw/lib/gcc/mingw32/6.3.0/include/c++\ostream ****       {
 404:c:/mingw/lib/gcc/mingw32/6.3.0/include/c++\ostream **** 	swap(__rhs);
 405:c:/mingw/lib/gcc/mingw32/6.3.0/include/c++\ostream **** 	return *this;
 406:c:/mingw/lib/gcc/mingw32/6.3.0/include/c++\ostream ****       }
 407:c:/mingw/lib/gcc/mingw32/6.3.0/include/c++\ostream **** 
 408:c:/mingw/lib/gcc/mingw32/6.3.0/include/c++\ostream ****       void
 409:c:/mingw/lib/gcc/mingw32/6.3.0/include/c++\ostream ****       swap(basic_ostream& __rhs)
 410:c:/mingw/lib/gcc/mingw32/6.3.0/include/c++\ostream ****       { __ios_type::swap(__rhs); }
 411:c:/mingw/lib/gcc/mingw32/6.3.0/include/c++\ostream **** #endif
 412:c:/mingw/lib/gcc/mingw32/6.3.0/include/c++\ostream **** 
 413:c:/mingw/lib/gcc/mingw32/6.3.0/include/c++\ostream ****       template<typename _ValueT>
 414:c:/mingw/lib/gcc/mingw32/6.3.0/include/c++\ostream **** 	__ostream_type&
 415:c:/mingw/lib/gcc/mingw32/6.3.0/include/c++\ostream **** 	_M_insert(_ValueT __v);
 416:c:/mingw/lib/gcc/mingw32/6.3.0/include/c++\ostream ****     };
 417:c:/mingw/lib/gcc/mingw32/6.3.0/include/c++\ostream **** 
 418:c:/mingw/lib/gcc/mingw32/6.3.0/include/c++\ostream ****   /**
 419:c:/mingw/lib/gcc/mingw32/6.3.0/include/c++\ostream ****    *  @brief  Performs setup work for output streams.
 420:c:/mingw/lib/gcc/mingw32/6.3.0/include/c++\ostream ****    *
 421:c:/mingw/lib/gcc/mingw32/6.3.0/include/c++\ostream ****    *  Objects of this class are created before all of the standard
 422:c:/mingw/lib/gcc/mingw32/6.3.0/include/c++\ostream ****    *  inserters are run.  It is responsible for <em>exception-safe prefix and
 423:c:/mingw/lib/gcc/mingw32/6.3.0/include/c++\ostream ****    *  suffix operations</em>.
 424:c:/mingw/lib/gcc/mingw32/6.3.0/include/c++\ostream ****   */
 425:c:/mingw/lib/gcc/mingw32/6.3.0/include/c++\ostream ****   template <typename _CharT, typename _Traits>
 426:c:/mingw/lib/gcc/mingw32/6.3.0/include/c++\ostream ****     class basic_ostream<_CharT, _Traits>::sentry
 427:c:/mingw/lib/gcc/mingw32/6.3.0/include/c++\ostream ****     {
 428:c:/mingw/lib/gcc/mingw32/6.3.0/include/c++\ostream ****       // Data Members.
 429:c:/mingw/lib/gcc/mingw32/6.3.0/include/c++\ostream ****       bool 				_M_ok;
 430:c:/mingw/lib/gcc/mingw32/6.3.0/include/c++\ostream ****       basic_ostream<_CharT, _Traits>& 	_M_os;
 431:c:/mingw/lib/gcc/mingw32/6.3.0/include/c++\ostream **** 
 432:c:/mingw/lib/gcc/mingw32/6.3.0/include/c++\ostream ****     public:
 433:c:/mingw/lib/gcc/mingw32/6.3.0/include/c++\ostream ****       /**
 434:c:/mingw/lib/gcc/mingw32/6.3.0/include/c++\ostream ****        *  @brief  The constructor performs preparatory work.
 435:c:/mingw/lib/gcc/mingw32/6.3.0/include/c++\ostream ****        *  @param  __os  The output stream to guard.
 436:c:/mingw/lib/gcc/mingw32/6.3.0/include/c++\ostream ****        *
 437:c:/mingw/lib/gcc/mingw32/6.3.0/include/c++\ostream ****        *  If the stream state is good (@a __os.good() is true), then if the
 438:c:/mingw/lib/gcc/mingw32/6.3.0/include/c++\ostream ****        *  stream is tied to another output stream, @c is.tie()->flush()
 439:c:/mingw/lib/gcc/mingw32/6.3.0/include/c++\ostream ****        *  is called to synchronize the output sequences.
 440:c:/mingw/lib/gcc/mingw32/6.3.0/include/c++\ostream ****        *
 441:c:/mingw/lib/gcc/mingw32/6.3.0/include/c++\ostream ****        *  If the stream state is still good, then the sentry state becomes
 442:c:/mingw/lib/gcc/mingw32/6.3.0/include/c++\ostream ****        *  true (@a okay).
 443:c:/mingw/lib/gcc/mingw32/6.3.0/include/c++\ostream ****       */
 444:c:/mingw/lib/gcc/mingw32/6.3.0/include/c++\ostream ****       explicit
 445:c:/mingw/lib/gcc/mingw32/6.3.0/include/c++\ostream ****       sentry(basic_ostream<_CharT, _Traits>& __os);
 446:c:/mingw/lib/gcc/mingw32/6.3.0/include/c++\ostream **** 
 447:c:/mingw/lib/gcc/mingw32/6.3.0/include/c++\ostream ****       /**
 448:c:/mingw/lib/gcc/mingw32/6.3.0/include/c++\ostream ****        *  @brief  Possibly flushes the stream.
 449:c:/mingw/lib/gcc/mingw32/6.3.0/include/c++\ostream ****        *
 450:c:/mingw/lib/gcc/mingw32/6.3.0/include/c++\ostream ****        *  If @c ios_base::unitbuf is set in @c os.flags(), and
 451:c:/mingw/lib/gcc/mingw32/6.3.0/include/c++\ostream ****        *  @c std::uncaught_exception() is true, the sentry destructor calls
 452:c:/mingw/lib/gcc/mingw32/6.3.0/include/c++\ostream ****        *  @c flush() on the output stream.
 453:c:/mingw/lib/gcc/mingw32/6.3.0/include/c++\ostream ****       */
 454:c:/mingw/lib/gcc/mingw32/6.3.0/include/c++\ostream ****       ~sentry()
 455:c:/mingw/lib/gcc/mingw32/6.3.0/include/c++\ostream ****       {
 456:c:/mingw/lib/gcc/mingw32/6.3.0/include/c++\ostream **** 	// XXX MT
 457:c:/mingw/lib/gcc/mingw32/6.3.0/include/c++\ostream **** 	if (bool(_M_os.flags() & ios_base::unitbuf) && !uncaught_exception())
 458:c:/mingw/lib/gcc/mingw32/6.3.0/include/c++\ostream **** 	  {
 459:c:/mingw/lib/gcc/mingw32/6.3.0/include/c++\ostream **** 	    // Can't call flush directly or else will get into recursive lock.
 460:c:/mingw/lib/gcc/mingw32/6.3.0/include/c++\ostream **** 	    if (_M_os.rdbuf() && _M_os.rdbuf()->pubsync() == -1)
 461:c:/mingw/lib/gcc/mingw32/6.3.0/include/c++\ostream **** 	      _M_os.setstate(ios_base::badbit);
 462:c:/mingw/lib/gcc/mingw32/6.3.0/include/c++\ostream **** 	  }
 463:c:/mingw/lib/gcc/mingw32/6.3.0/include/c++\ostream ****       }
 464:c:/mingw/lib/gcc/mingw32/6.3.0/include/c++\ostream **** 
 465:c:/mingw/lib/gcc/mingw32/6.3.0/include/c++\ostream ****       /**
 466:c:/mingw/lib/gcc/mingw32/6.3.0/include/c++\ostream ****        *  @brief  Quick status checking.
 467:c:/mingw/lib/gcc/mingw32/6.3.0/include/c++\ostream ****        *  @return  The sentry state.
 468:c:/mingw/lib/gcc/mingw32/6.3.0/include/c++\ostream ****        *
 469:c:/mingw/lib/gcc/mingw32/6.3.0/include/c++\ostream ****        *  For ease of use, sentries may be converted to booleans.  The
 470:c:/mingw/lib/gcc/mingw32/6.3.0/include/c++\ostream ****        *  return value is that of the sentry state (true == okay).
 471:c:/mingw/lib/gcc/mingw32/6.3.0/include/c++\ostream ****       */
 472:c:/mingw/lib/gcc/mingw32/6.3.0/include/c++\ostream **** #if __cplusplus >= 201103L
 473:c:/mingw/lib/gcc/mingw32/6.3.0/include/c++\ostream ****       explicit
 474:c:/mingw/lib/gcc/mingw32/6.3.0/include/c++\ostream **** #endif
 475:c:/mingw/lib/gcc/mingw32/6.3.0/include/c++\ostream ****       operator bool() const
 476:c:/mingw/lib/gcc/mingw32/6.3.0/include/c++\ostream ****       { return _M_ok; }
 477:c:/mingw/lib/gcc/mingw32/6.3.0/include/c++\ostream ****     };
 478:c:/mingw/lib/gcc/mingw32/6.3.0/include/c++\ostream **** 
 479:c:/mingw/lib/gcc/mingw32/6.3.0/include/c++\ostream ****   //@{
 480:c:/mingw/lib/gcc/mingw32/6.3.0/include/c++\ostream ****   /**
 481:c:/mingw/lib/gcc/mingw32/6.3.0/include/c++\ostream ****    *  @brief  Character inserters
 482:c:/mingw/lib/gcc/mingw32/6.3.0/include/c++\ostream ****    *  @param  __out  An output stream.
 483:c:/mingw/lib/gcc/mingw32/6.3.0/include/c++\ostream ****    *  @param  __c  A character.
 484:c:/mingw/lib/gcc/mingw32/6.3.0/include/c++\ostream ****    *  @return  out
 485:c:/mingw/lib/gcc/mingw32/6.3.0/include/c++\ostream ****    *
 486:c:/mingw/lib/gcc/mingw32/6.3.0/include/c++\ostream ****    *  Behaves like one of the formatted arithmetic inserters described in
 487:c:/mingw/lib/gcc/mingw32/6.3.0/include/c++\ostream ****    *  std::basic_ostream.  After constructing a sentry object with good
 488:c:/mingw/lib/gcc/mingw32/6.3.0/include/c++\ostream ****    *  status, this function inserts a single character and any required
 489:c:/mingw/lib/gcc/mingw32/6.3.0/include/c++\ostream ****    *  padding (as determined by [22.2.2.2.2]).  @c __out.width(0) is then
 490:c:/mingw/lib/gcc/mingw32/6.3.0/include/c++\ostream ****    *  called.
 491:c:/mingw/lib/gcc/mingw32/6.3.0/include/c++\ostream ****    *
 492:c:/mingw/lib/gcc/mingw32/6.3.0/include/c++\ostream ****    *  If @p __c is of type @c char and the character type of the stream is not
 493:c:/mingw/lib/gcc/mingw32/6.3.0/include/c++\ostream ****    *  @c char, the character is widened before insertion.
 494:c:/mingw/lib/gcc/mingw32/6.3.0/include/c++\ostream ****   */
 495:c:/mingw/lib/gcc/mingw32/6.3.0/include/c++\ostream ****   template<typename _CharT, typename _Traits>
 496:c:/mingw/lib/gcc/mingw32/6.3.0/include/c++\ostream ****     inline basic_ostream<_CharT, _Traits>&
 497:c:/mingw/lib/gcc/mingw32/6.3.0/include/c++\ostream ****     operator<<(basic_ostream<_CharT, _Traits>& __out, _CharT __c)
 498:c:/mingw/lib/gcc/mingw32/6.3.0/include/c++\ostream ****     { return __ostream_insert(__out, &__c, 1); }
 499:c:/mingw/lib/gcc/mingw32/6.3.0/include/c++\ostream **** 
 500:c:/mingw/lib/gcc/mingw32/6.3.0/include/c++\ostream ****   template<typename _CharT, typename _Traits>
 501:c:/mingw/lib/gcc/mingw32/6.3.0/include/c++\ostream ****     inline basic_ostream<_CharT, _Traits>&
 502:c:/mingw/lib/gcc/mingw32/6.3.0/include/c++\ostream ****     operator<<(basic_ostream<_CharT, _Traits>& __out, char __c)
 503:c:/mingw/lib/gcc/mingw32/6.3.0/include/c++\ostream ****     { return (__out << __out.widen(__c)); }
 504:c:/mingw/lib/gcc/mingw32/6.3.0/include/c++\ostream **** 
 505:c:/mingw/lib/gcc/mingw32/6.3.0/include/c++\ostream ****   // Specialization
 506:c:/mingw/lib/gcc/mingw32/6.3.0/include/c++\ostream ****   template <class _Traits>
 507:c:/mingw/lib/gcc/mingw32/6.3.0/include/c++\ostream ****     inline basic_ostream<char, _Traits>&
 508:c:/mingw/lib/gcc/mingw32/6.3.0/include/c++\ostream ****     operator<<(basic_ostream<char, _Traits>& __out, char __c)
 509:c:/mingw/lib/gcc/mingw32/6.3.0/include/c++\ostream ****     { return __ostream_insert(__out, &__c, 1); }
 510:c:/mingw/lib/gcc/mingw32/6.3.0/include/c++\ostream **** 
 511:c:/mingw/lib/gcc/mingw32/6.3.0/include/c++\ostream ****   // Signed and unsigned
 512:c:/mingw/lib/gcc/mingw32/6.3.0/include/c++\ostream ****   template<class _Traits>
 513:c:/mingw/lib/gcc/mingw32/6.3.0/include/c++\ostream ****     inline basic_ostream<char, _Traits>&
 514:c:/mingw/lib/gcc/mingw32/6.3.0/include/c++\ostream ****     operator<<(basic_ostream<char, _Traits>& __out, signed char __c)
 515:c:/mingw/lib/gcc/mingw32/6.3.0/include/c++\ostream ****     { return (__out << static_cast<char>(__c)); }
 516:c:/mingw/lib/gcc/mingw32/6.3.0/include/c++\ostream **** 
 517:c:/mingw/lib/gcc/mingw32/6.3.0/include/c++\ostream ****   template<class _Traits>
 518:c:/mingw/lib/gcc/mingw32/6.3.0/include/c++\ostream ****     inline basic_ostream<char, _Traits>&
 519:c:/mingw/lib/gcc/mingw32/6.3.0/include/c++\ostream ****     operator<<(basic_ostream<char, _Traits>& __out, unsigned char __c)
 520:c:/mingw/lib/gcc/mingw32/6.3.0/include/c++\ostream ****     { return (__out << static_cast<char>(__c)); }
 521:c:/mingw/lib/gcc/mingw32/6.3.0/include/c++\ostream ****   //@}
 522:c:/mingw/lib/gcc/mingw32/6.3.0/include/c++\ostream **** 
 523:c:/mingw/lib/gcc/mingw32/6.3.0/include/c++\ostream ****   //@{
 524:c:/mingw/lib/gcc/mingw32/6.3.0/include/c++\ostream ****   /**
 525:c:/mingw/lib/gcc/mingw32/6.3.0/include/c++\ostream ****    *  @brief  String inserters
 526:c:/mingw/lib/gcc/mingw32/6.3.0/include/c++\ostream ****    *  @param  __out  An output stream.
 527:c:/mingw/lib/gcc/mingw32/6.3.0/include/c++\ostream ****    *  @param  __s  A character string.
 528:c:/mingw/lib/gcc/mingw32/6.3.0/include/c++\ostream ****    *  @return  out
 529:c:/mingw/lib/gcc/mingw32/6.3.0/include/c++\ostream ****    *  @pre  @p __s must be a non-NULL pointer
 530:c:/mingw/lib/gcc/mingw32/6.3.0/include/c++\ostream ****    *
 531:c:/mingw/lib/gcc/mingw32/6.3.0/include/c++\ostream ****    *  Behaves like one of the formatted arithmetic inserters described in
 532:c:/mingw/lib/gcc/mingw32/6.3.0/include/c++\ostream ****    *  std::basic_ostream.  After constructing a sentry object with good
 533:c:/mingw/lib/gcc/mingw32/6.3.0/include/c++\ostream ****    *  status, this function inserts @c traits::length(__s) characters starting
 534:c:/mingw/lib/gcc/mingw32/6.3.0/include/c++\ostream ****    *  at @p __s, widened if necessary, followed by any required padding (as
 535:c:/mingw/lib/gcc/mingw32/6.3.0/include/c++\ostream ****    *  determined by [22.2.2.2.2]).  @c __out.width(0) is then called.
 536:c:/mingw/lib/gcc/mingw32/6.3.0/include/c++\ostream ****   */
 537:c:/mingw/lib/gcc/mingw32/6.3.0/include/c++\ostream ****   template<typename _CharT, typename _Traits>
 538:c:/mingw/lib/gcc/mingw32/6.3.0/include/c++\ostream ****     inline basic_ostream<_CharT, _Traits>&
 539:c:/mingw/lib/gcc/mingw32/6.3.0/include/c++\ostream ****     operator<<(basic_ostream<_CharT, _Traits>& __out, const _CharT* __s)
 540:c:/mingw/lib/gcc/mingw32/6.3.0/include/c++\ostream ****     {
 541:c:/mingw/lib/gcc/mingw32/6.3.0/include/c++\ostream ****       if (!__s)
 542:c:/mingw/lib/gcc/mingw32/6.3.0/include/c++\ostream **** 	__out.setstate(ios_base::badbit);
 543:c:/mingw/lib/gcc/mingw32/6.3.0/include/c++\ostream ****       else
 544:c:/mingw/lib/gcc/mingw32/6.3.0/include/c++\ostream **** 	__ostream_insert(__out, __s,
 545:c:/mingw/lib/gcc/mingw32/6.3.0/include/c++\ostream **** 			 static_cast<streamsize>(_Traits::length(__s)));
 546:c:/mingw/lib/gcc/mingw32/6.3.0/include/c++\ostream ****       return __out;
 547:c:/mingw/lib/gcc/mingw32/6.3.0/include/c++\ostream ****     }
 548:c:/mingw/lib/gcc/mingw32/6.3.0/include/c++\ostream **** 
 549:c:/mingw/lib/gcc/mingw32/6.3.0/include/c++\ostream ****   template<typename _CharT, typename _Traits>
 550:c:/mingw/lib/gcc/mingw32/6.3.0/include/c++\ostream ****     basic_ostream<_CharT, _Traits> &
 551:c:/mingw/lib/gcc/mingw32/6.3.0/include/c++\ostream ****     operator<<(basic_ostream<_CharT, _Traits>& __out, const char* __s);
 552:c:/mingw/lib/gcc/mingw32/6.3.0/include/c++\ostream **** 
 553:c:/mingw/lib/gcc/mingw32/6.3.0/include/c++\ostream ****   // Partial specializations
 554:c:/mingw/lib/gcc/mingw32/6.3.0/include/c++\ostream ****   template<class _Traits>
 555:c:/mingw/lib/gcc/mingw32/6.3.0/include/c++\ostream ****     inline basic_ostream<char, _Traits>&
 556:c:/mingw/lib/gcc/mingw32/6.3.0/include/c++\ostream ****     operator<<(basic_ostream<char, _Traits>& __out, const char* __s)
 557:c:/mingw/lib/gcc/mingw32/6.3.0/include/c++\ostream ****     {
 558:c:/mingw/lib/gcc/mingw32/6.3.0/include/c++\ostream ****       if (!__s)
 559:c:/mingw/lib/gcc/mingw32/6.3.0/include/c++\ostream **** 	__out.setstate(ios_base::badbit);
 560:c:/mingw/lib/gcc/mingw32/6.3.0/include/c++\ostream ****       else
 561:c:/mingw/lib/gcc/mingw32/6.3.0/include/c++\ostream **** 	__ostream_insert(__out, __s,
 253              		.loc 4 561 0
 254 00b8 C7442408 		mov	DWORD PTR [esp+8], 8	 #,
 254      08000000 
 255 00c0 C7442404 		mov	DWORD PTR [esp+4], OFFSET FLAT:LC6	 #,
 255      64000000 
 256              	LBE82:
 257              	LBE81:
 258              	LBB83:
 259              	LBB80:
  12:Calculator.cpp **** }
 260              		.loc 2 12 0
 261 00c8 DC75F0   		fdiv	QWORD PTR [ebp-16]	 # b
 262 00cb DD5DD0   		fstp	QWORD PTR [ebp-48]	 # %sfp
 263              	LVL18:
 264              	L15:
 265              	LBE80:
 266              	LBE83:
 267              	LBB84:
 268              	LBB85:
 269              		.loc 4 561 0
 270 00ce C7042400 		mov	DWORD PTR [esp], OFFSET FLAT:__ZSt4cout	 #,
 270      000000
 271 00d5 E8000000 		call	__ZSt16__ostream_insertIcSt11char_traitsIcEERSt13basic_ostreamIT_T0_ES6_PKS3_i	 #
 271      00
 272              	LVL19:
 273              	LBE85:
 274              	LBE84:
 275              	LBB87:
 276              	LBB88:
 221:c:/mingw/lib/gcc/mingw32/6.3.0/include/c++\ostream **** 
 277              		.loc 4 221 0
 278 00da DD45D0   		fld	QWORD PTR [ebp-48]	 # %sfp
 279 00dd B9000000 		mov	ecx, OFFSET FLAT:__ZSt4cout	 #,
 279      00
 280 00e2 DD1C24   		fstp	QWORD PTR [esp]	 #
 281 00e5 E8000000 		call	__ZNSo9_M_insertIdEERSoT_	 #
 281      00
 282              	LVL20:
 283 00ea 83EC08   		sub	esp, 8	 #,
 284              	LVL21:
 285              	LBE88:
 286              	LBE87:
 287              	LBB89:
 288              	LBB90:
 113:c:/mingw/lib/gcc/mingw32/6.3.0/include/c++\ostream ****       }
 289              		.loc 4 113 0
 290 00ed 890424   		mov	DWORD PTR [esp], eax	 #, _25
 291 00f0 E8000000 		call	__ZSt4endlIcSt11char_traitsIcEERSt13basic_ostreamIT_T0_ES6_	 #
 291      00
 292              	LVL22:
 293              	L13:
 294              	LBE90:
 295              	LBE89:
  28:Calculator.cpp ****  case '+':
  29:Calculator.cpp ****  cout << "a + b = " << topla(a, b) << endl;
  30:Calculator.cpp ****  break;
  31:Calculator.cpp ****  case '*':
  32:Calculator.cpp ****  cout << "a * b = " << carp(a, b) << endl;
  33:Calculator.cpp ****  break;
  34:Calculator.cpp ****  case '/':
  35:Calculator.cpp ****  cout << "a / b = " << bol(a, b) << endl;
  36:Calculator.cpp ****  break;
  37:Calculator.cpp ****  case '-':
  38:Calculator.cpp ****  cout << "a - b = " << cikar(a, b) << endl;
  39:Calculator.cpp ****  break;
  40:Calculator.cpp ****  default:
  41:Calculator.cpp ****  cout << "\t Hatal seim yaptnz!";
  42:Calculator.cpp ****  break;
  43:Calculator.cpp ****  }
  44:Calculator.cpp ****  getch();
 296              		.loc 2 44 0
 297 00f5 E8000000 		call	_getch	 #
 297      00
 298              	LVL23:
  45:Calculator.cpp ****  return 0;
  46:Calculator.cpp **** }
 299              		.loc 2 46 0
 300 00fa 8B4DFC   		mov	ecx, DWORD PTR [ebp-4]	 #,
 301              		.cfi_remember_state
 302              		.cfi_def_cfa 1, 0
 303 00fd 31C0     		xor	eax, eax	 #
 304 00ff C9       		leave
 305              		.cfi_restore 5
 306 0100 8D61FC   		lea	esp, [ecx-4]	 #,
 307              		.cfi_def_cfa 4, 4
 308 0103 C3       		ret
 309              	L11:
 310              		.cfi_restore_state
 311              	LVL24:
 312              	LBB91:
 313              	LBB92:
  15:Calculator.cpp **** }
 314              		.loc 2 15 0
 315 0104 DD45E8   		fld	QWORD PTR [ebp-24]	 # a
 316              	LBE92:
 317              	LBE91:
 318              	LBB94:
 319              	LBB95:
 320              		.loc 4 561 0
 321 0107 C7442408 		mov	DWORD PTR [esp+8], 8	 #,
 321      08000000 
 322 010f C7442404 		mov	DWORD PTR [esp+4], OFFSET FLAT:LC7	 #,
 322      6D000000 
 323              	LBE95:
 324              	LBE94:
 325              	LBB96:
 326              	LBB93:
  15:Calculator.cpp **** }
 327              		.loc 2 15 0
 328 0117 DC65F0   		fsub	QWORD PTR [ebp-16]	 # b
 329 011a DD5DD0   		fstp	QWORD PTR [ebp-48]	 # %sfp
 330              	LVL25:
 331 011d EBAF     		jmp	L15	 #
 332              	LVL26:
 333              	L17:
 334              	LBE93:
 335              	LBE96:
  27:Calculator.cpp ****  case '+':
 336              		.loc 2 27 0
 337 011f 3C2A     		cmp	al, 42	 # op.0_8,
 338 0121 751B     		jne	L7	 #,
 339              	LVL27:
 340              	LBB97:
 341              	LBB98:
   9:Calculator.cpp **** }
 342              		.loc 2 9 0
 343 0123 DD45F0   		fld	QWORD PTR [ebp-16]	 # b
 344              	LBE98:
 345              	LBE97:
 346              	LBB100:
 347              	LBB86:
 348              		.loc 4 561 0
 349 0126 C7442408 		mov	DWORD PTR [esp+8], 8	 #,
 349      08000000 
 350 012e C7442404 		mov	DWORD PTR [esp+4], OFFSET FLAT:LC5	 #,
 350      5B000000 
 351              	LBE86:
 352              	LBE100:
 353              	LBB101:
 354              	LBB99:
   9:Calculator.cpp **** }
 355              		.loc 2 9 0
 356 0136 DC4DE8   		fmul	QWORD PTR [ebp-24]	 # a
 357 0139 DD5DD0   		fstp	QWORD PTR [ebp-48]	 # %sfp
 358              	LVL28:
 359 013c EB90     		jmp	L15	 #
 360              	LVL29:
 361              	L7:
 362              	LBE99:
 363              	LBE101:
  41:Calculator.cpp ****  break;
 364              		.loc 2 41 0
 365 013e C7442404 		mov	DWORD PTR [esp+4], OFFSET FLAT:LC8	 #,
 365      76000000 
 366 0146 C7042400 		mov	DWORD PTR [esp], OFFSET FLAT:__ZSt4cout	 #,
 366      000000
 367 014d E8000000 		call	__ZStlsISt11char_traitsIcEERSt13basic_ostreamIcT_ES5_PKc	 #
 367      00
 368              	LVL30:
 369 0152 EBA1     		jmp	L13	 #
 370              	L8:
 371              	LVL31:
 372              	LBB102:
 373              	LBB103:
   6:Calculator.cpp **** }
 374              		.loc 2 6 0
 375 0154 DD45F0   		fld	QWORD PTR [ebp-16]	 # b
 376              	LBE103:
 377              	LBE102:
 378              	LBB105:
 379              	LBB106:
 380              		.loc 4 561 0
 381 0157 C7442408 		mov	DWORD PTR [esp+8], 8	 #,
 381      08000000 
 382 015f C7442404 		mov	DWORD PTR [esp+4], OFFSET FLAT:LC4	 #,
 382      52000000 
 383              	LBE106:
 384              	LBE105:
 385              	LBB107:
 386              	LBB104:
   6:Calculator.cpp **** }
 387              		.loc 2 6 0
 388 0167 DC45E8   		fadd	QWORD PTR [ebp-24]	 # a
 389 016a DD5DD0   		fstp	QWORD PTR [ebp-48]	 # %sfp
 390              	LVL32:
 391 016d E95CFFFF 		jmp	L15	 #
 391      FF
 392              	LBE104:
 393              	LBE107:
 394              		.cfi_endproc
 395              	LFE1493:
 396 0172 8DB42600 		.p2align 4,,15
 396      0000008D 
 396      BC270000 
 396      0000
 398              	__GLOBAL__sub_I__Z5topladd:
 399              	LFB1929:
 400              		.loc 2 46 0
 401              		.cfi_startproc
 402              	LVL33:
 403 0180 83EC1C   		sub	esp, 28	 #,
 404              		.cfi_def_cfa_offset 32
 405              	LBB108:
 406              	LBB109:
 407              		.loc 1 74 0
 408 0183 B9000000 		mov	ecx, OFFSET FLAT:__ZStL8__ioinit	 #,
 408      00
 409 0188 E8000000 		call	__ZNSt8ios_base4InitC1Ev	 #
 409      00
 410              	LVL34:
 411 018d C7042400 		mov	DWORD PTR [esp], OFFSET FLAT:___tcf_0	 #,
 411      000000
 412 0194 E8000000 		call	_atexit	 #
 412      00
 413              	LVL35:
 414              	LBE109:
 415              	LBE108:
 416              		.loc 2 46 0
 417 0199 83C41C   		add	esp, 28	 #,
 418              		.cfi_def_cfa_offset 4
 419 019c C3       		ret
 420              		.cfi_endproc
 421              	LFE1929:
 422 019d 909090   		.section	.ctors,"w"
 423              		.align 4
 424 0000 80010000 		.long	__GLOBAL__sub_I__Z5topladd
 425              	.lcomm __ZStL8__ioinit,1,1
 426              		.text
 427              	Letext0:
 428              		.file 5 "c:/mingw/lib/gcc/mingw32/6.3.0/include/c++/cwchar"
 429              		.file 6 "<built-in>"
 430              		.file 7 "c:/mingw/lib/gcc/mingw32/6.3.0/include/c++/bits/exception_ptr.h"
 431              		.file 8 "c:/mingw/lib/gcc/mingw32/6.3.0/include/c++/type_traits"
 432              		.file 9 "c:/mingw/lib/gcc/mingw32/6.3.0/include/c++/mingw32/bits/c++config.h"
 433              		.file 10 "c:/mingw/lib/gcc/mingw32/6.3.0/include/c++/debug/debug.h"
 434              		.file 11 "c:/mingw/lib/gcc/mingw32/6.3.0/include/c++/bits/char_traits.h"
 435              		.file 12 "c:/mingw/lib/gcc/mingw32/6.3.0/include/c++/bits/stl_pair.h"
 436              		.file 13 "c:/mingw/lib/gcc/mingw32/6.3.0/include/c++/cstdint"
 437              		.file 14 "c:/mingw/lib/gcc/mingw32/6.3.0/include/c++/clocale"
 438              		.file 15 "c:/mingw/lib/gcc/mingw32/6.3.0/include/c++/cctype"
 439              		.file 16 "c:/mingw/lib/gcc/mingw32/6.3.0/include/c++/new"
 440              		.file 17 "c:/mingw/lib/gcc/mingw32/6.3.0/include/c++/cstdlib"
 441              		.file 18 "c:/mingw/lib/gcc/mingw32/6.3.0/include/c++/cstdio"
 442              		.file 19 "c:/mingw/lib/gcc/mingw32/6.3.0/include/c++/bits/basic_string.h"
 443              		.file 20 "c:/mingw/lib/gcc/mingw32/6.3.0/include/c++/system_error"
 444              		.file 21 "c:/mingw/lib/gcc/mingw32/6.3.0/include/c++/bits/ios_base.h"
 445              		.file 22 "c:/mingw/lib/gcc/mingw32/6.3.0/include/c++/cwctype"
 446              		.file 23 "c:/mingw/lib/gcc/mingw32/6.3.0/include/c++/bits/ostream.tcc"
 447              		.file 24 "c:/mingw/lib/gcc/mingw32/6.3.0/include/c++/bits/istream.tcc"
 448              		.file 25 "c:/mingw/lib/gcc/mingw32/6.3.0/include/c++/bits/locale_facets.h"
 449              		.file 26 "c:/mingw/lib/gcc/mingw32/6.3.0/include/c++/iosfwd"
 450              		.file 27 "c:/mingw/lib/gcc/mingw32/6.3.0/include/c++/bits/basic_ios.h"
 451              		.file 28 "c:/mingw/lib/gcc/mingw32/6.3.0/include/c++/bits/ostream_insert.h"
 452              		.file 29 "c:/mingw/lib/gcc/mingw32/6.3.0/include/c++/bits/predefined_ops.h"
 453              		.file 30 "c:/mingw/lib/gcc/mingw32/6.3.0/include/c++/ext/new_allocator.h"
 454              		.file 31 "c:/mingw/lib/gcc/mingw32/6.3.0/include/c++/ext/numeric_traits.h"
 455              		.file 32 "c:/mingw/lib/gcc/mingw32/6.3.0/include/stddef.h"
 456              		.file 33 "c:/mingw/include/wctype.h"
 457              		.file 34 "c:/mingw/include/stdio.h"
 458              		.file 35 "c:/mingw/include/stdint.h"
 459              		.file 36 "c:/mingw/include/wchar.h"
 460              		.file 37 "c:/mingw/include/time.h"
 461              		.file 38 "c:/mingw/include/stdlib.h"
 462              		.file 39 "c:/mingw/include/locale.h"
 463              		.file 40 "c:/mingw/include/ctype.h"
 464              		.file 41 "c:/mingw/lib/gcc/mingw32/6.3.0/include/c++/mingw32/bits/gthr-default.h"
 465              		.file 42 "c:/mingw/lib/gcc/mingw32/6.3.0/include/c++/mingw32/bits/atomic_word.h"
 466              		.file 43 "c:/mingw/include/conio.h"