	.file	"Calculator.cpp"
	.section .rdata,"dr"
__ZStL19piecewise_construct:
	.space 1
.lcomm __ZStL8__ioinit,1,1
	.text
	.globl	__Z5topladd
	.def	__Z5topladd;	.scl	2;	.type	32;	.endef
__Z5topladd:
LFB1445:
	.cfi_startproc
	pushl	%ebp
	.cfi_def_cfa_offset 8
	.cfi_offset 5, -8
	movl	%esp, %ebp
	.cfi_def_cfa_register 5
	subl	$16, %esp
	movl	8(%ebp), %eax
	movl	%eax, -8(%ebp)
	movl	12(%ebp), %eax
	movl	%eax, -4(%ebp)
	movl	16(%ebp), %eax
	movl	%eax, -16(%ebp)
	movl	20(%ebp), %eax
	movl	%eax, -12(%ebp)
	fldl	-8(%ebp)
	faddl	-16(%ebp)
	leave
	.cfi_restore 5
	.cfi_def_cfa 4, 4
	ret
	.cfi_endproc
LFE1445:
	.globl	__Z4carpdd
	.def	__Z4carpdd;	.scl	2;	.type	32;	.endef
__Z4carpdd:
LFB1446:
	.cfi_startproc
	pushl	%ebp
	.cfi_def_cfa_offset 8
	.cfi_offset 5, -8
	movl	%esp, %ebp
	.cfi_def_cfa_register 5
	subl	$16, %esp
	movl	8(%ebp), %eax
	movl	%eax, -8(%ebp)
	movl	12(%ebp), %eax
	movl	%eax, -4(%ebp)
	movl	16(%ebp), %eax
	movl	%eax, -16(%ebp)
	movl	20(%ebp), %eax
	movl	%eax, -12(%ebp)
	fldl	-8(%ebp)
	fmull	-16(%ebp)
	leave
	.cfi_restore 5
	.cfi_def_cfa 4, 4
	ret
	.cfi_endproc
LFE1446:
	.globl	__Z3boldd
	.def	__Z3boldd;	.scl	2;	.type	32;	.endef
__Z3boldd:
LFB1447:
	.cfi_startproc
	pushl	%ebp
	.cfi_def_cfa_offset 8
	.cfi_offset 5, -8
	movl	%esp, %ebp
	.cfi_def_cfa_register 5
	subl	$16, %esp
	movl	8(%ebp), %eax
	movl	%eax, -8(%ebp)
	movl	12(%ebp), %eax
	movl	%eax, -4(%ebp)
	movl	16(%ebp), %eax
	movl	%eax, -16(%ebp)
	movl	20(%ebp), %eax
	movl	%eax, -12(%ebp)
	fldl	-8(%ebp)
	fdivl	-16(%ebp)
	leave
	.cfi_restore 5
	.cfi_def_cfa 4, 4
	ret
	.cfi_endproc
LFE1447:
	.globl	__Z5cikardd
	.def	__Z5cikardd;	.scl	2;	.type	32;	.endef
__Z5cikardd:
LFB1448:
	.cfi_startproc
	pushl	%ebp
	.cfi_def_cfa_offset 8
	.cfi_offset 5, -8
	movl	%esp, %ebp
	.cfi_def_cfa_register 5
	subl	$16, %esp
	movl	8(%ebp), %eax
	movl	%eax, -8(%ebp)
	movl	12(%ebp), %eax
	movl	%eax, -4(%ebp)
	movl	16(%ebp), %eax
	movl	%eax, -16(%ebp)
	movl	20(%ebp), %eax
	movl	%eax, -12(%ebp)
	fldl	-8(%ebp)
	fsubl	-16(%ebp)
	leave
	.cfi_restore 5
	.cfi_def_cfa 4, 4
	ret
	.cfi_endproc
LFE1448:
	.def	___main;	.scl	2;	.type	32;	.endef
	.section .rdata,"dr"
LC1:
	.ascii "1.Sayi Giriniz a= \0"
LC2:
	.ascii "2.Sayi Giriniz b= \0"
	.align 4
LC3:
	.ascii "Matematiksel Operatoru Giriniz +,*,/,- = \0"
LC4:
	.ascii "a + b = \0"
LC5:
	.ascii "a * b = \0"
LC6:
	.ascii "a / b = \0"
LC7:
	.ascii "a - b = \0"
LC8:
	.ascii "\11 Hatal\304\261 se\303\247im yapt\304\261n\304\261z!\0"
	.text
	.globl	_main
	.def	_main;	.scl	2;	.type	32;	.endef
_main:
LFB1449:
	.cfi_startproc
	leal	4(%esp), %ecx
	.cfi_def_cfa 1, 0
	andl	$-16, %esp
	pushl	-4(%ecx)
	pushl	%ebp
	.cfi_escape 0x10,0x5,0x2,0x75,0
	movl	%esp, %ebp
	pushl	%ecx
	.cfi_escape 0xf,0x3,0x75,0x7c,0x6
	subl	$68, %esp
	call	___main
	movb	$42, -25(%ebp)
	movl	$LC1, 4(%esp)
	movl	$__ZSt4cout, (%esp)
	call	__ZStlsISt11char_traitsIcEERSt13basic_ostreamIcT_ES5_PKc
	leal	-16(%ebp), %eax
	movl	%eax, (%esp)
	movl	$__ZSt3cin, %ecx
	call	__ZNSirsERd
	subl	$4, %esp
	movl	$LC2, 4(%esp)
	movl	$__ZSt4cout, (%esp)
	call	__ZStlsISt11char_traitsIcEERSt13basic_ostreamIcT_ES5_PKc
	leal	-24(%ebp), %eax
	movl	%eax, (%esp)
	movl	$__ZSt3cin, %ecx
	call	__ZNSirsERd
	subl	$4, %esp
	movl	$LC3, 4(%esp)
	movl	$__ZSt4cout, (%esp)
	call	__ZStlsISt11char_traitsIcEERSt13basic_ostreamIcT_ES5_PKc
	leal	-25(%ebp), %eax
	movl	%eax, 4(%esp)
	movl	$__ZSt3cin, (%esp)
	call	__ZStrsIcSt11char_traitsIcEERSt13basic_istreamIT_T0_ES6_RS3_
	movl	$__ZSt4endlIcSt11char_traitsIcEERSt13basic_ostreamIT_T0_ES6_, (%esp)
	movl	$__ZSt4cout, %ecx
	call	__ZNSolsEPFRSoS_E
	subl	$4, %esp
	movzbl	-25(%ebp), %eax
	movsbl	%al, %eax
	cmpl	$43, %eax
	je	L11
	cmpl	$43, %eax
	jg	L12
	cmpl	$42, %eax
	je	L13
	jmp	L10
L12:
	cmpl	$45, %eax
	je	L14
	cmpl	$47, %eax
	je	L15
	jmp	L10
L11:
	fldl	-24(%ebp)
	fldl	-16(%ebp)
	fxch	%st(1)
	fstpl	8(%esp)
	fstpl	(%esp)
	call	__Z5topladd
	fstpl	-48(%ebp)
	movl	$LC4, 4(%esp)
	movl	$__ZSt4cout, (%esp)
	call	__ZStlsISt11char_traitsIcEERSt13basic_ostreamIcT_ES5_PKc
	fldl	-48(%ebp)
	fstpl	(%esp)
	movl	%eax, %ecx
	call	__ZNSolsEd
	subl	$8, %esp
	movl	$__ZSt4endlIcSt11char_traitsIcEERSt13basic_ostreamIT_T0_ES6_, (%esp)
	movl	%eax, %ecx
	call	__ZNSolsEPFRSoS_E
	subl	$4, %esp
	jmp	L16
L13:
	fldl	-24(%ebp)
	fldl	-16(%ebp)
	fxch	%st(1)
	fstpl	8(%esp)
	fstpl	(%esp)
	call	__Z4carpdd
	fstpl	-48(%ebp)
	movl	$LC5, 4(%esp)
	movl	$__ZSt4cout, (%esp)
	call	__ZStlsISt11char_traitsIcEERSt13basic_ostreamIcT_ES5_PKc
	fldl	-48(%ebp)
	fstpl	(%esp)
	movl	%eax, %ecx
	call	__ZNSolsEd
	subl	$8, %esp
	movl	$__ZSt4endlIcSt11char_traitsIcEERSt13basic_ostreamIT_T0_ES6_, (%esp)
	movl	%eax, %ecx
	call	__ZNSolsEPFRSoS_E
	subl	$4, %esp
	jmp	L16
L15:
	fldl	-24(%ebp)
	fldl	-16(%ebp)
	fxch	%st(1)
	fstpl	8(%esp)
	fstpl	(%esp)
	call	__Z3boldd
	fstpl	-48(%ebp)
	movl	$LC6, 4(%esp)
	movl	$__ZSt4cout, (%esp)
	call	__ZStlsISt11char_traitsIcEERSt13basic_ostreamIcT_ES5_PKc
	fldl	-48(%ebp)
	fstpl	(%esp)
	movl	%eax, %ecx
	call	__ZNSolsEd
	subl	$8, %esp
	movl	$__ZSt4endlIcSt11char_traitsIcEERSt13basic_ostreamIT_T0_ES6_, (%esp)
	movl	%eax, %ecx
	call	__ZNSolsEPFRSoS_E
	subl	$4, %esp
	jmp	L16
L14:
	fldl	-24(%ebp)
	fldl	-16(%ebp)
	fxch	%st(1)
	fstpl	8(%esp)
	fstpl	(%esp)
	call	__Z5cikardd
	fstpl	-48(%ebp)
	movl	$LC7, 4(%esp)
	movl	$__ZSt4cout, (%esp)
	call	__ZStlsISt11char_traitsIcEERSt13basic_ostreamIcT_ES5_PKc
	fldl	-48(%ebp)
	fstpl	(%esp)
	movl	%eax, %ecx
	call	__ZNSolsEd
	subl	$8, %esp
	movl	$__ZSt4endlIcSt11char_traitsIcEERSt13basic_ostreamIT_T0_ES6_, (%esp)
	movl	%eax, %ecx
	call	__ZNSolsEPFRSoS_E
	subl	$4, %esp
	jmp	L16
L10:
	movl	$LC8, 4(%esp)
	movl	$__ZSt4cout, (%esp)
	call	__ZStlsISt11char_traitsIcEERSt13basic_ostreamIcT_ES5_PKc
	nop
L16:
	call	_getch
	movl	$0, %eax
	movl	-4(%ebp), %ecx
	.cfi_def_cfa 1, 0
	leave
	.cfi_restore 5
	leal	-4(%ecx), %esp
	.cfi_def_cfa 4, 4
	ret
	.cfi_endproc
LFE1449:
	.def	___tcf_0;	.scl	3;	.type	32;	.endef
___tcf_0:
LFB1884:
	.cfi_startproc
	pushl	%ebp
	.cfi_def_cfa_offset 8
	.cfi_offset 5, -8
	movl	%esp, %ebp
	.cfi_def_cfa_register 5
	subl	$8, %esp
	movl	$__ZStL8__ioinit, %ecx
	call	__ZNSt8ios_base4InitD1Ev
	leave
	.cfi_restore 5
	.cfi_def_cfa 4, 4
	ret
	.cfi_endproc
LFE1884:
	.def	__Z41__static_initialization_and_destruction_0ii;	.scl	3;	.type	32;	.endef
__Z41__static_initialization_and_destruction_0ii:
LFB1883:
	.cfi_startproc
	pushl	%ebp
	.cfi_def_cfa_offset 8
	.cfi_offset 5, -8
	movl	%esp, %ebp
	.cfi_def_cfa_register 5
	subl	$24, %esp
	cmpl	$1, 8(%ebp)
	jne	L21
	cmpl	$65535, 12(%ebp)
	jne	L21
	movl	$__ZStL8__ioinit, %ecx
	call	__ZNSt8ios_base4InitC1Ev
	movl	$___tcf_0, (%esp)
	call	_atexit
L21:
	nop
	leave
	.cfi_restore 5
	.cfi_def_cfa 4, 4
	ret
	.cfi_endproc
LFE1883:
	.def	__GLOBAL__sub_I__Z5topladd;	.scl	3;	.type	32;	.endef
__GLOBAL__sub_I__Z5topladd:
LFB1885:
	.cfi_startproc
	pushl	%ebp
	.cfi_def_cfa_offset 8
	.cfi_offset 5, -8
	movl	%esp, %ebp
	.cfi_def_cfa_register 5
	subl	$24, %esp
	movl	$65535, 4(%esp)
	movl	$1, (%esp)
	call	__Z41__static_initialization_and_destruction_0ii
	leave
	.cfi_restore 5
	.cfi_def_cfa 4, 4
	ret
	.cfi_endproc
LFE1885:
	.section	.ctors,"w"
	.align 4
	.long	__GLOBAL__sub_I__Z5topladd
	.ident	"GCC: (MinGW.org GCC-6.3.0-1) 6.3.0"
	.def	__ZStlsISt11char_traitsIcEERSt13basic_ostreamIcT_ES5_PKc;	.scl	2;	.type	32;	.endef
	.def	__ZNSirsERd;	.scl	2;	.type	32;	.endef
	.def	__ZStrsIcSt11char_traitsIcEERSt13basic_istreamIT_T0_ES6_RS3_;	.scl	2;	.type	32;	.endef
	.def	__ZSt4endlIcSt11char_traitsIcEERSt13basic_ostreamIT_T0_ES6_;	.scl	2;	.type	32;	.endef
	.def	__ZNSolsEPFRSoS_E;	.scl	2;	.type	32;	.endef
	.def	__ZNSolsEd;	.scl	2;	.type	32;	.endef
	.def	_getch;	.scl	2;	.type	32;	.endef
	.def	__ZNSt8ios_base4InitD1Ev;	.scl	2;	.type	32;	.endef
	.def	__ZNSt8ios_base4InitC1Ev;	.scl	2;	.type	32;	.endef
	.def	_atexit;	.scl	2;	.type	32;	.endef
